

Microchip Technology PIC LITE Macro Assembler V1.12 build 49521 
                                                                                               Mon Jul 28 01:17:15 2014

HI-TECH Software Omniscient Code Generator (Lite mode) build 49521
     1  0000                     opt subtitle "HI-TECH Software Omniscient Code Generator (Lite mode) build 49521"
     2                           opt subtitle "HI-TECH Software Omniscient Code Generator (Lite mode) build 49521"
     3                           
     4                           opt pagewidth 120
     5                           
     6                           	opt lm
     7                           
     8                           	processor	16F887
     9                           clrc	macro
    10  0000                     	endm
    11                           opt subtitle "HI-TECH Software Omniscient Code Generator (Lite mode) build 49521"
    12                           
    13  0000                     	endm
    14                           opt subtitle "HI-TECH Software Omniscient Code Generator (Lite mode) build 49521"
    15                           
    16  0000                     	endm
    17                           opt subtitle "HI-TECH Software Omniscient Code Generator (Lite mode) build 49521"
    18                           
    19  0000                     	endm
    20                           opt subtitle "HI-TECH Software Omniscient Code Generator (Lite mode) build 49521"
    21                           
    22  0000                     	endm
    23                           opt subtitle "HI-TECH Software Omniscient Code Generator (Lite mode) build 49521"
    24                           
    25  0000                     	endm
    26                           opt subtitle "HI-TECH Software Omniscient Code Generator (Lite mode) build 49521"
    27                           
    28  0000                     	endm
    29                           opt subtitle "HI-TECH Software Omniscient Code Generator (Lite mode) build 49521"
    30                           
    31  0000                     	endm
    32  0000                     indf	equ	0
    33  0000                     indf0	equ	0
    34  0002                     pc	equ	2
    35  0002                     pcl	equ	2
    36  0003                     status	equ	3
    37  0004                     fsr	equ	4
    38  0004                     fsr0	equ	4
    39  0001                     c	equ	1
    40  0000                     z	equ	0
    41  000A                     pclath	equ	10
    42                           opt subtitle "HI-TECH Software Omniscient Code Generator (Lite mode) build 49521"
    43  0000                     INDF equ 00h ;# 
    44                           opt subtitle "HI-TECH Software Omniscient Code Generator (Lite mode) build 49521"
    45  0001                     TMR0 equ 01h ;# 
    46                           opt subtitle "HI-TECH Software Omniscient Code Generator (Lite mode) build 49521"
    47  0002                     PCL equ 02h ;# 
    48                           opt subtitle "HI-TECH Software Omniscient Code Generator (Lite mode) build 49521"
    49  0003                     STATUS equ 03h ;# 
    50                           opt subtitle "HI-TECH Software Omniscient Code Generator (Lite mode) build 49521"
    51  0004                     FSR equ 04h ;# 
    52                           opt subtitle "HI-TECH Software Omniscient Code Generator (Lite mode) build 49521"
    53  0005                     PORTA equ 05h ;# 
    54                           opt subtitle "HI-TECH Software Omniscient Code Generator (Lite mode) build 49521"
    55  0006                     PORTB equ 06h ;# 
    56                           opt subtitle "HI-TECH Software Omniscient Code Generator (Lite mode) build 49521"
    57  0007                     PORTC equ 07h ;# 
    58                           opt subtitle "HI-TECH Software Omniscient Code Generator (Lite mode) build 49521"
    59  0008                     PORTD equ 08h ;# 
    60                           opt subtitle "HI-TECH Software Omniscient Code Generator (Lite mode) build 49521"
    61  0009                     PORTE equ 09h ;# 
    62                           opt subtitle "HI-TECH Software Omniscient Code Generator (Lite mode) build 49521"
    63  000A                     PCLATH equ 0Ah ;# 
    64                           opt subtitle "HI-TECH Software Omniscient Code Generator (Lite mode) build 49521"
    65  000B                     INTCON equ 0Bh ;# 
    66                           opt subtitle "HI-TECH Software Omniscient Code Generator (Lite mode) build 49521"
    67  000C                     PIR1 equ 0Ch ;# 
    68                           opt subtitle "HI-TECH Software Omniscient Code Generator (Lite mode) build 49521"
    69  000D                     PIR2 equ 0Dh ;# 
    70                           opt subtitle "HI-TECH Software Omniscient Code Generator (Lite mode) build 49521"
    71  000E                     TMR1 equ 0Eh ;# 
    72                           opt subtitle "HI-TECH Software Omniscient Code Generator (Lite mode) build 49521"
    73  000E                     TMR1L equ 0Eh ;# 
    74                           opt subtitle "HI-TECH Software Omniscient Code Generator (Lite mode) build 49521"
    75  000F                     TMR1H equ 0Fh ;# 
    76                           opt subtitle "HI-TECH Software Omniscient Code Generator (Lite mode) build 49521"
    77  0010                     T1CON equ 010h ;# 
    78                           opt subtitle "HI-TECH Software Omniscient Code Generator (Lite mode) build 49521"
    79  0011                     TMR2 equ 011h ;# 
    80                           opt subtitle "HI-TECH Software Omniscient Code Generator (Lite mode) build 49521"
    81  0012                     T2CON equ 012h ;# 
    82                           opt subtitle "HI-TECH Software Omniscient Code Generator (Lite mode) build 49521"
    83  0013                     SSPBUF equ 013h ;# 
    84                           opt subtitle "HI-TECH Software Omniscient Code Generator (Lite mode) build 49521"
    85  0014                     SSPCON equ 014h ;# 
    86                           opt subtitle "HI-TECH Software Omniscient Code Generator (Lite mode) build 49521"
    87  0015                     CCPR1 equ 015h ;# 
    88                           opt subtitle "HI-TECH Software Omniscient Code Generator (Lite mode) build 49521"
    89  0015                     CCPR1L equ 015h ;# 
    90                           opt subtitle "HI-TECH Software Omniscient Code Generator (Lite mode) build 49521"
    91  0016                     CCPR1H equ 016h ;# 
    92                           opt subtitle "HI-TECH Software Omniscient Code Generator (Lite mode) build 49521"
    93  0017                     CCP1CON equ 017h ;# 
    94                           opt subtitle "HI-TECH Software Omniscient Code Generator (Lite mode) build 49521"
    95  0018                     RCSTA equ 018h ;# 
    96                           opt subtitle "HI-TECH Software Omniscient Code Generator (Lite mode) build 49521"
    97  0019                     TXREG equ 019h ;# 
    98                           opt subtitle "HI-TECH Software Omniscient Code Generator (Lite mode) build 49521"
    99  001A                     RCREG equ 01Ah ;# 
   100                           opt subtitle "HI-TECH Software Omniscient Code Generator (Lite mode) build 49521"
   101  001B                     CCPR2 equ 01Bh ;# 
   102                           opt subtitle "HI-TECH Software Omniscient Code Generator (Lite mode) build 49521"
   103  001B                     CCPR2L equ 01Bh ;# 
   104                           opt subtitle "HI-TECH Software Omniscient Code Generator (Lite mode) build 49521"
   105  001C                     CCPR2H equ 01Ch ;# 
   106                           opt subtitle "HI-TECH Software Omniscient Code Generator (Lite mode) build 49521"
   107  001D                     CCP2CON equ 01Dh ;# 
   108                           opt subtitle "HI-TECH Software Omniscient Code Generator (Lite mode) build 49521"
   109  001E                     ADRESH equ 01Eh ;# 
   110                           opt subtitle "HI-TECH Software Omniscient Code Generator (Lite mode) build 49521"
   111  001F                     ADCON0 equ 01Fh ;# 
   112                           opt subtitle "HI-TECH Software Omniscient Code Generator (Lite mode) build 49521"
   113  0081                     OPTION_REG equ 081h ;# 
   114                           opt subtitle "HI-TECH Software Omniscient Code Generator (Lite mode) build 49521"
   115  0085                     TRISA equ 085h ;# 
   116                           opt subtitle "HI-TECH Software Omniscient Code Generator (Lite mode) build 49521"
   117  0086                     TRISB equ 086h ;# 
   118                           opt subtitle "HI-TECH Software Omniscient Code Generator (Lite mode) build 49521"
   119  0087                     TRISC equ 087h ;# 
   120                           opt subtitle "HI-TECH Software Omniscient Code Generator (Lite mode) build 49521"
   121  0088                     TRISD equ 088h ;# 
   122                           opt subtitle "HI-TECH Software Omniscient Code Generator (Lite mode) build 49521"
   123  0089                     TRISE equ 089h ;# 
   124                           opt subtitle "HI-TECH Software Omniscient Code Generator (Lite mode) build 49521"
   125  008C                     PIE1 equ 08Ch ;# 
   126                           opt subtitle "HI-TECH Software Omniscient Code Generator (Lite mode) build 49521"
   127  008D                     PIE2 equ 08Dh ;# 
   128                           opt subtitle "HI-TECH Software Omniscient Code Generator (Lite mode) build 49521"
   129  008E                     PCON equ 08Eh ;# 
   130                           opt subtitle "HI-TECH Software Omniscient Code Generator (Lite mode) build 49521"
   131  008F                     OSCCON equ 08Fh ;# 
   132                           opt subtitle "HI-TECH Software Omniscient Code Generator (Lite mode) build 49521"
   133  0090                     OSCTUNE equ 090h ;# 
   134                           opt subtitle "HI-TECH Software Omniscient Code Generator (Lite mode) build 49521"
   135  0091                     SSPCON2 equ 091h ;# 
   136                           opt subtitle "HI-TECH Software Omniscient Code Generator (Lite mode) build 49521"
   137  0092                     PR2 equ 092h ;# 
   138                           opt subtitle "HI-TECH Software Omniscient Code Generator (Lite mode) build 49521"
   139  0093                     SSPADD equ 093h ;# 
   140                           opt subtitle "HI-TECH Software Omniscient Code Generator (Lite mode) build 49521"
   141  0093                     SSPMSK equ 093h ;# 
   142                           opt subtitle "HI-TECH Software Omniscient Code Generator (Lite mode) build 49521"
   143  0093                     MSK equ 093h ;# 
   144                           opt subtitle "HI-TECH Software Omniscient Code Generator (Lite mode) build 49521"
   145  0094                     SSPSTAT equ 094h ;# 
   146                           opt subtitle "HI-TECH Software Omniscient Code Generator (Lite mode) build 49521"
   147  0095                     WPUB equ 095h ;# 
   148                           opt subtitle "HI-TECH Software Omniscient Code Generator (Lite mode) build 49521"
   149  0096                     IOCB equ 096h ;# 
   150                           opt subtitle "HI-TECH Software Omniscient Code Generator (Lite mode) build 49521"
   151  0097                     VRCON equ 097h ;# 
   152                           opt subtitle "HI-TECH Software Omniscient Code Generator (Lite mode) build 49521"
   153  0098                     TXSTA equ 098h ;# 
   154                           opt subtitle "HI-TECH Software Omniscient Code Generator (Lite mode) build 49521"
   155  0099                     SPBRG equ 099h ;# 
   156                           opt subtitle "HI-TECH Software Omniscient Code Generator (Lite mode) build 49521"
   157  009A                     SPBRGH equ 09Ah ;# 
   158                           opt subtitle "HI-TECH Software Omniscient Code Generator (Lite mode) build 49521"
   159  009B                     PWM1CON equ 09Bh ;# 
   160                           opt subtitle "HI-TECH Software Omniscient Code Generator (Lite mode) build 49521"
   161  009C                     ECCPAS equ 09Ch ;# 
   162                           opt subtitle "HI-TECH Software Omniscient Code Generator (Lite mode) build 49521"
   163  009D                     PSTRCON equ 09Dh ;# 
   164                           opt subtitle "HI-TECH Software Omniscient Code Generator (Lite mode) build 49521"
   165  009E                     ADRESL equ 09Eh ;# 
   166                           opt subtitle "HI-TECH Software Omniscient Code Generator (Lite mode) build 49521"
   167  009F                     ADCON1 equ 09Fh ;# 
   168                           opt subtitle "HI-TECH Software Omniscient Code Generator (Lite mode) build 49521"
   169  0105                     WDTCON equ 0105h ;# 
   170                           opt subtitle "HI-TECH Software Omniscient Code Generator (Lite mode) build 49521"
   171  0107                     CM1CON0 equ 0107h ;# 
   172                           opt subtitle "HI-TECH Software Omniscient Code Generator (Lite mode) build 49521"
   173  0108                     CM2CON0 equ 0108h ;# 
   174                           opt subtitle "HI-TECH Software Omniscient Code Generator (Lite mode) build 49521"
   175  0109                     CM2CON1 equ 0109h ;# 
   176                           opt subtitle "HI-TECH Software Omniscient Code Generator (Lite mode) build 49521"
   177  010C                     EEDATA equ 010Ch ;# 
   178                           opt subtitle "HI-TECH Software Omniscient Code Generator (Lite mode) build 49521"
   179  010C                     EEDAT equ 010Ch ;# 
   180                           opt subtitle "HI-TECH Software Omniscient Code Generator (Lite mode) build 49521"
   181  010D                     EEADR equ 010Dh ;# 
   182                           opt subtitle "HI-TECH Software Omniscient Code Generator (Lite mode) build 49521"
   183  010E                     EEDATH equ 010Eh ;# 
   184                           opt subtitle "HI-TECH Software Omniscient Code Generator (Lite mode) build 49521"
   185  010F                     EEADRH equ 010Fh ;# 
   186                           opt subtitle "HI-TECH Software Omniscient Code Generator (Lite mode) build 49521"
   187  0185                     SRCON equ 0185h ;# 
   188                           opt subtitle "HI-TECH Software Omniscient Code Generator (Lite mode) build 49521"
   189  0187                     BAUDCTL equ 0187h ;# 
   190                           opt subtitle "HI-TECH Software Omniscient Code Generator (Lite mode) build 49521"
   191  0188                     ANSEL equ 0188h ;# 
   192                           opt subtitle "HI-TECH Software Omniscient Code Generator (Lite mode) build 49521"
   193  0189                     ANSELH equ 0189h ;# 
   194                           opt subtitle "HI-TECH Software Omniscient Code Generator (Lite mode) build 49521"
   195  018C                     EECON1 equ 018Ch ;# 
   196                           opt subtitle "HI-TECH Software Omniscient Code Generator (Lite mode) build 49521"
   197  018D                     EECON2 equ 018Dh ;# 
   198                           opt subtitle "HI-TECH Software Omniscient Code Generator (Lite mode) build 49521"
   199  0000                     INDF equ 00h ;# 
   200                           opt subtitle "HI-TECH Software Omniscient Code Generator (Lite mode) build 49521"
   201  0001                     TMR0 equ 01h ;# 
   202                           opt subtitle "HI-TECH Software Omniscient Code Generator (Lite mode) build 49521"
   203  0002                     PCL equ 02h ;# 
   204                           opt subtitle "HI-TECH Software Omniscient Code Generator (Lite mode) build 49521"
   205  0003                     STATUS equ 03h ;# 
   206                           opt subtitle "HI-TECH Software Omniscient Code Generator (Lite mode) build 49521"
   207  0004                     FSR equ 04h ;# 
   208                           opt subtitle "HI-TECH Software Omniscient Code Generator (Lite mode) build 49521"
   209  0005                     PORTA equ 05h ;# 
   210                           opt subtitle "HI-TECH Software Omniscient Code Generator (Lite mode) build 49521"
   211  0006                     PORTB equ 06h ;# 
   212                           opt subtitle "HI-TECH Software Omniscient Code Generator (Lite mode) build 49521"
   213  0007                     PORTC equ 07h ;# 
   214                           opt subtitle "HI-TECH Software Omniscient Code Generator (Lite mode) build 49521"
   215  0008                     PORTD equ 08h ;# 
   216                           opt subtitle "HI-TECH Software Omniscient Code Generator (Lite mode) build 49521"
   217  0009                     PORTE equ 09h ;# 
   218                           opt subtitle "HI-TECH Software Omniscient Code Generator (Lite mode) build 49521"
   219  000A                     PCLATH equ 0Ah ;# 
   220                           opt subtitle "HI-TECH Software Omniscient Code Generator (Lite mode) build 49521"
   221  000B                     INTCON equ 0Bh ;# 
   222                           opt subtitle "HI-TECH Software Omniscient Code Generator (Lite mode) build 49521"
   223  000C                     PIR1 equ 0Ch ;# 
   224                           opt subtitle "HI-TECH Software Omniscient Code Generator (Lite mode) build 49521"
   225  000D                     PIR2 equ 0Dh ;# 
   226                           opt subtitle "HI-TECH Software Omniscient Code Generator (Lite mode) build 49521"
   227  000E                     TMR1 equ 0Eh ;# 
   228                           opt subtitle "HI-TECH Software Omniscient Code Generator (Lite mode) build 49521"
   229  000E                     TMR1L equ 0Eh ;# 
   230                           opt subtitle "HI-TECH Software Omniscient Code Generator (Lite mode) build 49521"
   231  000F                     TMR1H equ 0Fh ;# 
   232                           opt subtitle "HI-TECH Software Omniscient Code Generator (Lite mode) build 49521"
   233  0010                     T1CON equ 010h ;# 
   234                           opt subtitle "HI-TECH Software Omniscient Code Generator (Lite mode) build 49521"
   235  0011                     TMR2 equ 011h ;# 
   236                           opt subtitle "HI-TECH Software Omniscient Code Generator (Lite mode) build 49521"
   237  0012                     T2CON equ 012h ;# 
   238                           opt subtitle "HI-TECH Software Omniscient Code Generator (Lite mode) build 49521"
   239  0013                     SSPBUF equ 013h ;# 
   240                           opt subtitle "HI-TECH Software Omniscient Code Generator (Lite mode) build 49521"
   241  0014                     SSPCON equ 014h ;# 
   242                           opt subtitle "HI-TECH Software Omniscient Code Generator (Lite mode) build 49521"
   243  0015                     CCPR1 equ 015h ;# 
   244                           opt subtitle "HI-TECH Software Omniscient Code Generator (Lite mode) build 49521"
   245  0015                     CCPR1L equ 015h ;# 
   246                           opt subtitle "HI-TECH Software Omniscient Code Generator (Lite mode) build 49521"
   247  0016                     CCPR1H equ 016h ;# 
   248                           opt subtitle "HI-TECH Software Omniscient Code Generator (Lite mode) build 49521"
   249  0017                     CCP1CON equ 017h ;# 
   250                           opt subtitle "HI-TECH Software Omniscient Code Generator (Lite mode) build 49521"
   251  0018                     RCSTA equ 018h ;# 
   252                           opt subtitle "HI-TECH Software Omniscient Code Generator (Lite mode) build 49521"
   253  0019                     TXREG equ 019h ;# 
   254                           opt subtitle "HI-TECH Software Omniscient Code Generator (Lite mode) build 49521"
   255  001A                     RCREG equ 01Ah ;# 
   256                           opt subtitle "HI-TECH Software Omniscient Code Generator (Lite mode) build 49521"
   257  001B                     CCPR2 equ 01Bh ;# 
   258                           opt subtitle "HI-TECH Software Omniscient Code Generator (Lite mode) build 49521"
   259  001B                     CCPR2L equ 01Bh ;# 
   260                           opt subtitle "HI-TECH Software Omniscient Code Generator (Lite mode) build 49521"
   261  001C                     CCPR2H equ 01Ch ;# 
   262                           opt subtitle "HI-TECH Software Omniscient Code Generator (Lite mode) build 49521"
   263  001D                     CCP2CON equ 01Dh ;# 
   264                           opt subtitle "HI-TECH Software Omniscient Code Generator (Lite mode) build 49521"
   265  001E                     ADRESH equ 01Eh ;# 
   266                           opt subtitle "HI-TECH Software Omniscient Code Generator (Lite mode) build 49521"
   267  001F                     ADCON0 equ 01Fh ;# 
   268                           opt subtitle "HI-TECH Software Omniscient Code Generator (Lite mode) build 49521"
   269  0081                     OPTION_REG equ 081h ;# 
   270                           opt subtitle "HI-TECH Software Omniscient Code Generator (Lite mode) build 49521"
   271  0085                     TRISA equ 085h ;# 
   272                           opt subtitle "HI-TECH Software Omniscient Code Generator (Lite mode) build 49521"
   273  0086                     TRISB equ 086h ;# 
   274                           opt subtitle "HI-TECH Software Omniscient Code Generator (Lite mode) build 49521"
   275  0087                     TRISC equ 087h ;# 
   276                           opt subtitle "HI-TECH Software Omniscient Code Generator (Lite mode) build 49521"
   277  0088                     TRISD equ 088h ;# 
   278                           opt subtitle "HI-TECH Software Omniscient Code Generator (Lite mode) build 49521"
   279  0089                     TRISE equ 089h ;# 
   280                           opt subtitle "HI-TECH Software Omniscient Code Generator (Lite mode) build 49521"
   281  008C                     PIE1 equ 08Ch ;# 
   282                           opt subtitle "HI-TECH Software Omniscient Code Generator (Lite mode) build 49521"
   283  008D                     PIE2 equ 08Dh ;# 
   284                           opt subtitle "HI-TECH Software Omniscient Code Generator (Lite mode) build 49521"
   285  008E                     PCON equ 08Eh ;# 
   286                           opt subtitle "HI-TECH Software Omniscient Code Generator (Lite mode) build 49521"
   287  008F                     OSCCON equ 08Fh ;# 
   288                           opt subtitle "HI-TECH Software Omniscient Code Generator (Lite mode) build 49521"
   289  0090                     OSCTUNE equ 090h ;# 
   290                           opt subtitle "HI-TECH Software Omniscient Code Generator (Lite mode) build 49521"
   291  0091                     SSPCON2 equ 091h ;# 
   292                           opt subtitle "HI-TECH Software Omniscient Code Generator (Lite mode) build 49521"
   293  0092                     PR2 equ 092h ;# 
   294                           opt subtitle "HI-TECH Software Omniscient Code Generator (Lite mode) build 49521"
   295  0093                     SSPADD equ 093h ;# 
   296                           opt subtitle "HI-TECH Software Omniscient Code Generator (Lite mode) build 49521"
   297  0093                     SSPMSK equ 093h ;# 
   298                           opt subtitle "HI-TECH Software Omniscient Code Generator (Lite mode) build 49521"
   299  0093                     MSK equ 093h ;# 
   300                           opt subtitle "HI-TECH Software Omniscient Code Generator (Lite mode) build 49521"
   301  0094                     SSPSTAT equ 094h ;# 
   302                           opt subtitle "HI-TECH Software Omniscient Code Generator (Lite mode) build 49521"
   303  0095                     WPUB equ 095h ;# 
   304                           opt subtitle "HI-TECH Software Omniscient Code Generator (Lite mode) build 49521"
   305  0096                     IOCB equ 096h ;# 
   306                           opt subtitle "HI-TECH Software Omniscient Code Generator (Lite mode) build 49521"
   307  0097                     VRCON equ 097h ;# 
   308                           opt subtitle "HI-TECH Software Omniscient Code Generator (Lite mode) build 49521"
   309  0098                     TXSTA equ 098h ;# 
   310                           opt subtitle "HI-TECH Software Omniscient Code Generator (Lite mode) build 49521"
   311  0099                     SPBRG equ 099h ;# 
   312                           opt subtitle "HI-TECH Software Omniscient Code Generator (Lite mode) build 49521"
   313  009A                     SPBRGH equ 09Ah ;# 
   314                           opt subtitle "HI-TECH Software Omniscient Code Generator (Lite mode) build 49521"
   315  009B                     PWM1CON equ 09Bh ;# 
   316                           opt subtitle "HI-TECH Software Omniscient Code Generator (Lite mode) build 49521"
   317  009C                     ECCPAS equ 09Ch ;# 
   318                           opt subtitle "HI-TECH Software Omniscient Code Generator (Lite mode) build 49521"
   319  009D                     PSTRCON equ 09Dh ;# 
   320                           opt subtitle "HI-TECH Software Omniscient Code Generator (Lite mode) build 49521"
   321  009E                     ADRESL equ 09Eh ;# 
   322                           opt subtitle "HI-TECH Software Omniscient Code Generator (Lite mode) build 49521"
   323  009F                     ADCON1 equ 09Fh ;# 
   324                           opt subtitle "HI-TECH Software Omniscient Code Generator (Lite mode) build 49521"
   325  0105                     WDTCON equ 0105h ;# 
   326                           opt subtitle "HI-TECH Software Omniscient Code Generator (Lite mode) build 49521"
   327  0107                     CM1CON0 equ 0107h ;# 
   328                           opt subtitle "HI-TECH Software Omniscient Code Generator (Lite mode) build 49521"
   329  0108                     CM2CON0 equ 0108h ;# 
   330                           opt subtitle "HI-TECH Software Omniscient Code Generator (Lite mode) build 49521"
   331  0109                     CM2CON1 equ 0109h ;# 
   332                           opt subtitle "HI-TECH Software Omniscient Code Generator (Lite mode) build 49521"
   333  010C                     EEDATA equ 010Ch ;# 
   334                           opt subtitle "HI-TECH Software Omniscient Code Generator (Lite mode) build 49521"
   335  010C                     EEDAT equ 010Ch ;# 
   336                           opt subtitle "HI-TECH Software Omniscient Code Generator (Lite mode) build 49521"
   337  010D                     EEADR equ 010Dh ;# 
   338                           opt subtitle "HI-TECH Software Omniscient Code Generator (Lite mode) build 49521"
   339  010E                     EEDATH equ 010Eh ;# 
   340                           opt subtitle "HI-TECH Software Omniscient Code Generator (Lite mode) build 49521"
   341  010F                     EEADRH equ 010Fh ;# 
   342                           opt subtitle "HI-TECH Software Omniscient Code Generator (Lite mode) build 49521"
   343  0185                     SRCON equ 0185h ;# 
   344                           opt subtitle "HI-TECH Software Omniscient Code Generator (Lite mode) build 49521"
   345  0187                     BAUDCTL equ 0187h ;# 
   346                           opt subtitle "HI-TECH Software Omniscient Code Generator (Lite mode) build 49521"
   347  0188                     ANSEL equ 0188h ;# 
   348                           opt subtitle "HI-TECH Software Omniscient Code Generator (Lite mode) build 49521"
   349  0189                     ANSELH equ 0189h ;# 
   350                           opt subtitle "HI-TECH Software Omniscient Code Generator (Lite mode) build 49521"
   351  018C                     EECON1 equ 018Ch ;# 
   352                           opt subtitle "HI-TECH Software Omniscient Code Generator (Lite mode) build 49521"
   353  018D                     EECON2 equ 018Dh ;# 
   354                           opt subtitle "HI-TECH Software Omniscient Code Generator (Lite mode) build 49521"
   355  0000                     INDF equ 00h ;# 
   356                           opt subtitle "HI-TECH Software Omniscient Code Generator (Lite mode) build 49521"
   357  0001                     TMR0 equ 01h ;# 
   358                           opt subtitle "HI-TECH Software Omniscient Code Generator (Lite mode) build 49521"
   359  0002                     PCL equ 02h ;# 
   360                           opt subtitle "HI-TECH Software Omniscient Code Generator (Lite mode) build 49521"
   361  0003                     STATUS equ 03h ;# 
   362                           opt subtitle "HI-TECH Software Omniscient Code Generator (Lite mode) build 49521"
   363  0004                     FSR equ 04h ;# 
   364                           opt subtitle "HI-TECH Software Omniscient Code Generator (Lite mode) build 49521"
   365  0005                     PORTA equ 05h ;# 
   366                           opt subtitle "HI-TECH Software Omniscient Code Generator (Lite mode) build 49521"
   367  0006                     PORTB equ 06h ;# 
   368                           opt subtitle "HI-TECH Software Omniscient Code Generator (Lite mode) build 49521"
   369  0007                     PORTC equ 07h ;# 
   370                           opt subtitle "HI-TECH Software Omniscient Code Generator (Lite mode) build 49521"
   371  0008                     PORTD equ 08h ;# 
   372                           opt subtitle "HI-TECH Software Omniscient Code Generator (Lite mode) build 49521"
   373  0009                     PORTE equ 09h ;# 
   374                           opt subtitle "HI-TECH Software Omniscient Code Generator (Lite mode) build 49521"
   375  000A                     PCLATH equ 0Ah ;# 
   376                           opt subtitle "HI-TECH Software Omniscient Code Generator (Lite mode) build 49521"
   377  000B                     INTCON equ 0Bh ;# 
   378                           opt subtitle "HI-TECH Software Omniscient Code Generator (Lite mode) build 49521"
   379  000C                     PIR1 equ 0Ch ;# 
   380                           opt subtitle "HI-TECH Software Omniscient Code Generator (Lite mode) build 49521"
   381  000D                     PIR2 equ 0Dh ;# 
   382                           opt subtitle "HI-TECH Software Omniscient Code Generator (Lite mode) build 49521"
   383  000E                     TMR1 equ 0Eh ;# 
   384                           opt subtitle "HI-TECH Software Omniscient Code Generator (Lite mode) build 49521"
   385  000E                     TMR1L equ 0Eh ;# 
   386                           opt subtitle "HI-TECH Software Omniscient Code Generator (Lite mode) build 49521"
   387  000F                     TMR1H equ 0Fh ;# 
   388                           opt subtitle "HI-TECH Software Omniscient Code Generator (Lite mode) build 49521"
   389  0010                     T1CON equ 010h ;# 
   390                           opt subtitle "HI-TECH Software Omniscient Code Generator (Lite mode) build 49521"
   391  0011                     TMR2 equ 011h ;# 
   392                           opt subtitle "HI-TECH Software Omniscient Code Generator (Lite mode) build 49521"
   393  0012                     T2CON equ 012h ;# 
   394                           opt subtitle "HI-TECH Software Omniscient Code Generator (Lite mode) build 49521"
   395  0013                     SSPBUF equ 013h ;# 
   396                           opt subtitle "HI-TECH Software Omniscient Code Generator (Lite mode) build 49521"
   397  0014                     SSPCON equ 014h ;# 
   398                           opt subtitle "HI-TECH Software Omniscient Code Generator (Lite mode) build 49521"
   399  0015                     CCPR1 equ 015h ;# 
   400                           opt subtitle "HI-TECH Software Omniscient Code Generator (Lite mode) build 49521"
   401  0015                     CCPR1L equ 015h ;# 
   402                           opt subtitle "HI-TECH Software Omniscient Code Generator (Lite mode) build 49521"
   403  0016                     CCPR1H equ 016h ;# 
   404                           opt subtitle "HI-TECH Software Omniscient Code Generator (Lite mode) build 49521"
   405  0017                     CCP1CON equ 017h ;# 
   406                           opt subtitle "HI-TECH Software Omniscient Code Generator (Lite mode) build 49521"
   407  0018                     RCSTA equ 018h ;# 
   408                           opt subtitle "HI-TECH Software Omniscient Code Generator (Lite mode) build 49521"
   409  0019                     TXREG equ 019h ;# 
   410                           opt subtitle "HI-TECH Software Omniscient Code Generator (Lite mode) build 49521"
   411  001A                     RCREG equ 01Ah ;# 
   412                           opt subtitle "HI-TECH Software Omniscient Code Generator (Lite mode) build 49521"
   413  001B                     CCPR2 equ 01Bh ;# 
   414                           opt subtitle "HI-TECH Software Omniscient Code Generator (Lite mode) build 49521"
   415  001B                     CCPR2L equ 01Bh ;# 
   416                           opt subtitle "HI-TECH Software Omniscient Code Generator (Lite mode) build 49521"
   417  001C                     CCPR2H equ 01Ch ;# 
   418                           opt subtitle "HI-TECH Software Omniscient Code Generator (Lite mode) build 49521"
   419  001D                     CCP2CON equ 01Dh ;# 
   420                           opt subtitle "HI-TECH Software Omniscient Code Generator (Lite mode) build 49521"
   421  001E                     ADRESH equ 01Eh ;# 
   422                           opt subtitle "HI-TECH Software Omniscient Code Generator (Lite mode) build 49521"
   423  001F                     ADCON0 equ 01Fh ;# 
   424                           opt subtitle "HI-TECH Software Omniscient Code Generator (Lite mode) build 49521"
   425  0081                     OPTION_REG equ 081h ;# 
   426                           opt subtitle "HI-TECH Software Omniscient Code Generator (Lite mode) build 49521"
   427  0085                     TRISA equ 085h ;# 
   428                           opt subtitle "HI-TECH Software Omniscient Code Generator (Lite mode) build 49521"
   429  0086                     TRISB equ 086h ;# 
   430                           opt subtitle "HI-TECH Software Omniscient Code Generator (Lite mode) build 49521"
   431  0087                     TRISC equ 087h ;# 
   432                           opt subtitle "HI-TECH Software Omniscient Code Generator (Lite mode) build 49521"
   433  0088                     TRISD equ 088h ;# 
   434                           opt subtitle "HI-TECH Software Omniscient Code Generator (Lite mode) build 49521"
   435  0089                     TRISE equ 089h ;# 
   436                           opt subtitle "HI-TECH Software Omniscient Code Generator (Lite mode) build 49521"
   437  008C                     PIE1 equ 08Ch ;# 
   438                           opt subtitle "HI-TECH Software Omniscient Code Generator (Lite mode) build 49521"
   439  008D                     PIE2 equ 08Dh ;# 
   440                           opt subtitle "HI-TECH Software Omniscient Code Generator (Lite mode) build 49521"
   441  008E                     PCON equ 08Eh ;# 
   442                           opt subtitle "HI-TECH Software Omniscient Code Generator (Lite mode) build 49521"
   443  008F                     OSCCON equ 08Fh ;# 
   444                           opt subtitle "HI-TECH Software Omniscient Code Generator (Lite mode) build 49521"
   445  0090                     OSCTUNE equ 090h ;# 
   446                           opt subtitle "HI-TECH Software Omniscient Code Generator (Lite mode) build 49521"
   447  0091                     SSPCON2 equ 091h ;# 
   448                           opt subtitle "HI-TECH Software Omniscient Code Generator (Lite mode) build 49521"
   449  0092                     PR2 equ 092h ;# 
   450                           opt subtitle "HI-TECH Software Omniscient Code Generator (Lite mode) build 49521"
   451  0093                     SSPADD equ 093h ;# 
   452                           opt subtitle "HI-TECH Software Omniscient Code Generator (Lite mode) build 49521"
   453  0093                     SSPMSK equ 093h ;# 
   454                           opt subtitle "HI-TECH Software Omniscient Code Generator (Lite mode) build 49521"
   455  0093                     MSK equ 093h ;# 
   456                           opt subtitle "HI-TECH Software Omniscient Code Generator (Lite mode) build 49521"
   457  0094                     SSPSTAT equ 094h ;# 
   458                           opt subtitle "HI-TECH Software Omniscient Code Generator (Lite mode) build 49521"
   459  0095                     WPUB equ 095h ;# 
   460                           opt subtitle "HI-TECH Software Omniscient Code Generator (Lite mode) build 49521"
   461  0096                     IOCB equ 096h ;# 
   462                           opt subtitle "HI-TECH Software Omniscient Code Generator (Lite mode) build 49521"
   463  0097                     VRCON equ 097h ;# 
   464                           opt subtitle "HI-TECH Software Omniscient Code Generator (Lite mode) build 49521"
   465  0098                     TXSTA equ 098h ;# 
   466                           opt subtitle "HI-TECH Software Omniscient Code Generator (Lite mode) build 49521"
   467  0099                     SPBRG equ 099h ;# 
   468                           opt subtitle "HI-TECH Software Omniscient Code Generator (Lite mode) build 49521"
   469  009A                     SPBRGH equ 09Ah ;# 
   470                           opt subtitle "HI-TECH Software Omniscient Code Generator (Lite mode) build 49521"
   471  009B                     PWM1CON equ 09Bh ;# 
   472                           opt subtitle "HI-TECH Software Omniscient Code Generator (Lite mode) build 49521"
   473  009C                     ECCPAS equ 09Ch ;# 
   474                           opt subtitle "HI-TECH Software Omniscient Code Generator (Lite mode) build 49521"
   475  009D                     PSTRCON equ 09Dh ;# 
   476                           opt subtitle "HI-TECH Software Omniscient Code Generator (Lite mode) build 49521"
   477  009E                     ADRESL equ 09Eh ;# 
   478                           opt subtitle "HI-TECH Software Omniscient Code Generator (Lite mode) build 49521"
   479  009F                     ADCON1 equ 09Fh ;# 
   480                           opt subtitle "HI-TECH Software Omniscient Code Generator (Lite mode) build 49521"
   481  0105                     WDTCON equ 0105h ;# 
   482                           opt subtitle "HI-TECH Software Omniscient Code Generator (Lite mode) build 49521"
   483  0107                     CM1CON0 equ 0107h ;# 
   484                           opt subtitle "HI-TECH Software Omniscient Code Generator (Lite mode) build 49521"
   485  0108                     CM2CON0 equ 0108h ;# 
   486                           opt subtitle "HI-TECH Software Omniscient Code Generator (Lite mode) build 49521"
   487  0109                     CM2CON1 equ 0109h ;# 
   488                           opt subtitle "HI-TECH Software Omniscient Code Generator (Lite mode) build 49521"
   489  010C                     EEDATA equ 010Ch ;# 
   490                           opt subtitle "HI-TECH Software Omniscient Code Generator (Lite mode) build 49521"
   491  010C                     EEDAT equ 010Ch ;# 
   492                           opt subtitle "HI-TECH Software Omniscient Code Generator (Lite mode) build 49521"
   493  010D                     EEADR equ 010Dh ;# 
   494                           opt subtitle "HI-TECH Software Omniscient Code Generator (Lite mode) build 49521"
   495  010E                     EEDATH equ 010Eh ;# 
   496                           opt subtitle "HI-TECH Software Omniscient Code Generator (Lite mode) build 49521"
   497  010F                     EEADRH equ 010Fh ;# 
   498                           opt subtitle "HI-TECH Software Omniscient Code Generator (Lite mode) build 49521"
   499  0185                     SRCON equ 0185h ;# 
   500                           opt subtitle "HI-TECH Software Omniscient Code Generator (Lite mode) build 49521"
   501  0187                     BAUDCTL equ 0187h ;# 
   502                           opt subtitle "HI-TECH Software Omniscient Code Generator (Lite mode) build 49521"
   503  0188                     ANSEL equ 0188h ;# 
   504                           opt subtitle "HI-TECH Software Omniscient Code Generator (Lite mode) build 49521"
   505  0189                     ANSELH equ 0189h ;# 
   506                           opt subtitle "HI-TECH Software Omniscient Code Generator (Lite mode) build 49521"
   507  018C                     EECON1 equ 018Ch ;# 
   508                           opt subtitle "HI-TECH Software Omniscient Code Generator (Lite mode) build 49521"
   509  018D                     EECON2 equ 018Dh ;# 
   510                           opt subtitle "HI-TECH Software Omniscient Code Generator (Lite mode) build 49521"
   511                           
   512                           opt pagewidth 120
   513                           
   514                           	opt lm
   515                           
   516                           	processor	16F887
   517                           clrc	macro
   518                           	bcf	3,0
   519                           	endm
   520                           clrz	macro
   521                           	bcf	3,2
   522                           	endm
   523                           setc	macro
   524                           	bsf	3,0
   525                           	endm
   526                           setz	macro
   527                           	bsf	3,2
   528                           	endm
   529                           skipc	macro
   530                           	btfss	3,0
   531  0003                     __pstrings:
   532                           opt subtitle "HI-TECH Software Omniscient Code Generator (Lite mode) build 49521"
   533  0003                     stringtab:
   534                           opt subtitle "HI-TECH Software Omniscient Code Generator (Lite mode) build 49521"
   535  0003                     __stringtab:
   536                           opt subtitle "HI-TECH Software Omniscient Code Generator (Lite mode) build 49521"
   537  0003                     stringcode:stringdir:
      + 0003                     stringdir:	
   538  0003  3000               movlw high(stringdir)
   539  0004  008A               movwf pclath
   540  0005  0804               movf fsr,w
   541  0006  0A84               incf fsr
   542  0007  0782               	addwf pc
   543  0008                     __stringbase:
   544  0008  3400               	retlw	0
   545                           opt subtitle "HI-TECH Software Omniscient Code Generator (Lite mode) build 49521"
   546                           
   547  0009                     __end_of__stringtab:
   548                           opt subtitle "HI-TECH Software Omniscient Code Generator (Lite mode) build 49521"
   549                           
   550  0009                     _dpowers:
   551  0009  3401               	retlw	01h
   552  000A  3400               	retlw	0
   553                           opt subtitle "HI-TECH Software Omniscient Code Generator (Lite mode) build 49521"
   554  000B  340A               	retlw	0Ah
   555  000C  3400               	retlw	0
   556                           opt subtitle "HI-TECH Software Omniscient Code Generator (Lite mode) build 49521"
   557  000D  3464               	retlw	064h
   558  000E  3400               	retlw	0
   559                           opt subtitle "HI-TECH Software Omniscient Code Generator (Lite mode) build 49521"
   560  000F  34E8               	retlw	0E8h
   561  0010  3403               	retlw	03h
   562                           opt subtitle "HI-TECH Software Omniscient Code Generator (Lite mode) build 49521"
   563  0011  3410               	retlw	010h
   564  0012  3427               	retlw	027h
   565                           opt subtitle "HI-TECH Software Omniscient Code Generator (Lite mode) build 49521"
   566                           
   567  0013                     __end_of_dpowers:
   568                           opt subtitle "HI-TECH Software Omniscient Code Generator (Lite mode) build 49521"
   569                           
   570                           opt pagewidth 120
   571                           
   572                           	opt lm
   573  0032                     __pnvBANK0:
   574  0032                     _spi1:
   575  0032                            ds      1
   576                           opt subtitle "HI-TECH Software Omniscient Code Generator (Lite mode) build 49521"
   577                           
   578  0033                     _uart1:
   579  0033                            ds      1
   580                           opt subtitle "HI-TECH Software Omniscient Code Generator (Lite mode) build 49521"
   581                           
   582  000C                     _PIR1bits	set	0xC
   583                           opt subtitle "HI-TECH Software Omniscient Code Generator (Lite mode) build 49521"
   584  001A                     _RCREG	set	0x1A
   585                           opt subtitle "HI-TECH Software Omniscient Code Generator (Lite mode) build 49521"
   586  0018                     _RCSTA	set	0x18
   587                           opt subtitle "HI-TECH Software Omniscient Code Generator (Lite mode) build 49521"
   588  0018                     _RCSTAbits	set	0x18
   589                           opt subtitle "HI-TECH Software Omniscient Code Generator (Lite mode) build 49521"
   590  0013                     _SSPBUF	set	0x13
   591                           opt subtitle "HI-TECH Software Omniscient Code Generator (Lite mode) build 49521"
   592  0014                     _SSPCON	set	0x14
   593                           opt subtitle "HI-TECH Software Omniscient Code Generator (Lite mode) build 49521"
   594  0014                     _SSPCONbits	set	0x14
   595                           opt subtitle "HI-TECH Software Omniscient Code Generator (Lite mode) build 49521"
   596  0019                     _TXREG	set	0x19
   597                           opt subtitle "HI-TECH Software Omniscient Code Generator (Lite mode) build 49521"
   598  0099                     _SPBRG	set	0x99
   599                           opt subtitle "HI-TECH Software Omniscient Code Generator (Lite mode) build 49521"
   600  0094                     _SSPSTAT	set	0x94
   601                           opt subtitle "HI-TECH Software Omniscient Code Generator (Lite mode) build 49521"
   602  0094                     _SSPSTATbits	set	0x94
   603                           opt subtitle "HI-TECH Software Omniscient Code Generator (Lite mode) build 49521"
   604  0087                     _TRISCbits	set	0x87
   605                           opt subtitle "HI-TECH Software Omniscient Code Generator (Lite mode) build 49521"
   606  0098                     _TXSTA	set	0x98
   607                           opt subtitle "HI-TECH Software Omniscient Code Generator (Lite mode) build 49521"
   608  0098                     _TXSTAbits	set	0x98
   609                           opt subtitle "HI-TECH Software Omniscient Code Generator (Lite mode) build 49521"
   610  0188                     _ANSEL	set	0x188
   611                           opt subtitle "HI-TECH Software Omniscient Code Generator (Lite mode) build 49521"
   612                           
   613  0013                     __stringdata:
   614                           opt subtitle "HI-TECH Software Omniscient Code Generator (Lite mode) build 49521"
   615  0013                     STR_3:	
   616  0013  3452               	retlw	82	;'R'
   617  0014  3465               	retlw	101	;'e'
   618  0015  3463               	retlw	99	;'c'
   619  0016  3465               	retlw	101	;'e'
   620  0017  3469               	retlw	105	;'i'
   621  0018  3476               	retlw	118	;'v'
   622  0019  3465               	retlw	101	;'e'
   623  001A  3420               	retlw	32	;' '
   624  001B  3466               	retlw	102	;'f'
   625  001C  3472               	retlw	114	;'r'
   626  001D  346F               	retlw	111	;'o'
   627  001E  346D               	retlw	109	;'m'
   628  001F  3420               	retlw	32	;' '
   629  0020  3453               	retlw	83	;'S'
   630  0021  3450               	retlw	80	;'P'
   631  0022  3449               	retlw	73	;'I'
   632  0023  343A               	retlw	58	;':'
   633  0024  3420               	retlw	32	;' '
   634  0025  3425               	retlw	37	;'%'
   635  0026  3464               	retlw	100	;'d'
   636  0027  340D               	retlw	13
   637  0028  340A               	retlw	10
   638  0029  3400               	retlw	0
   639                           opt subtitle "HI-TECH Software Omniscient Code Generator (Lite mode) build 49521"
   640                           
   641  002A                     STR_2:	
   642  002A  3453               	retlw	83	;'S'
   643  002B  3465               	retlw	101	;'e'
   644  002C  346E               	retlw	110	;'n'
   645  002D  3464               	retlw	100	;'d'
   646  002E  3420               	retlw	32	;' '
   647  002F  3474               	retlw	116	;'t'
   648  0030  346F               	retlw	111	;'o'
   649  0031  3420               	retlw	32	;' '
   650  0032  3453               	retlw	83	;'S'
   651  0033  3450               	retlw	80	;'P'
   652  0034  3449               	retlw	73	;'I'
   653  0035  343A               	retlw	58	;':'
   654  0036  3420               	retlw	32	;' '
   655  0037  3425               	retlw	37	;'%'
   656  0038  3464               	retlw	100	;'d'
   657  0039  340D               	retlw	13
   658  003A  340A               	retlw	10
   659  003B  3400               	retlw	0
   660                           opt subtitle "HI-TECH Software Omniscient Code Generator (Lite mode) build 49521"
   661                           
   662  003C                     STR_4:	
   663  003C  3445               	retlw	69	;'E'
   664  003D  346E               	retlw	110	;'n'
   665  003E  3464               	retlw	100	;'d'
   666  003F  3420               	retlw	32	;' '
   667  0040  346F               	retlw	111	;'o'
   668  0041  3466               	retlw	102	;'f'
   669  0042  3420               	retlw	32	;' '
   670  0043  3453               	retlw	83	;'S'
   671  0044  3450               	retlw	80	;'P'
   672  0045  3449               	retlw	73	;'I'
   673  0046  3420               	retlw	32	;' '
   674  0047  3464               	retlw	100	;'d'
   675  0048  3465               	retlw	101	;'e'
   676  0049  346D               	retlw	109	;'m'
   677  004A  346F               	retlw	111	;'o'
   678  004B  340D               	retlw	13
   679  004C  340A               	retlw	10
   680  004D  3400               	retlw	0
   681                           opt subtitle "HI-TECH Software Omniscient Code Generator (Lite mode) build 49521"
   682                           
   683  004E                     STR_1:	
   684  004E  3450               	retlw	80	;'P'
   685  004F  3449               	retlw	73	;'I'
   686  0050  3443               	retlw	67	;'C'
   687  0051  3420               	retlw	32	;' '
   688  0052  3453               	retlw	83	;'S'
   689  0053  3450               	retlw	80	;'P'
   690  0054  3449               	retlw	73	;'I'
   691  0055  3420               	retlw	32	;' '
   692  0056  3444               	retlw	68	;'D'
   693  0057  3465               	retlw	101	;'e'
   694  0058  346D               	retlw	109	;'m'
   695  0059  346F               	retlw	111	;'o'
   696  005A  340D               	retlw	13
   697  005B  340A               	retlw	10
   698  005C  3400               	retlw	0
   699                           opt subtitle "HI-TECH Software Omniscient Code Generator (Lite mode) build 49521"
   700                           
   701  005D                     __end_of__stringdata:
   702                           opt subtitle "HI-TECH Software Omniscient Code Generator (Lite mode) build 49521"
   703                           
   704  0000                     __CFG_CPD$OFF equ 0x0
   705                           opt subtitle "HI-TECH Software Omniscient Code Generator (Lite mode) build 49521"
   706  0000                     __CFG_BOREN$OFF equ 0x0
   707                           opt subtitle "HI-TECH Software Omniscient Code Generator (Lite mode) build 49521"
   708  0000                     __CFG_IESO$OFF equ 0x0
   709                           opt subtitle "HI-TECH Software Omniscient Code Generator (Lite mode) build 49521"
   710  0000                     __CFG_FOSC$XT equ 0x0
   711                           opt subtitle "HI-TECH Software Omniscient Code Generator (Lite mode) build 49521"
   712  0000                     __CFG_FCMEN$OFF equ 0x0
   713                           opt subtitle "HI-TECH Software Omniscient Code Generator (Lite mode) build 49521"
   714  0000                     __CFG_MCLRE$OFF equ 0x0
   715                           opt subtitle "HI-TECH Software Omniscient Code Generator (Lite mode) build 49521"
   716  0000                     __CFG_WDTE$OFF equ 0x0
   717                           opt subtitle "HI-TECH Software Omniscient Code Generator (Lite mode) build 49521"
   718  0000                     __CFG_CP$OFF equ 0x0
   719                           opt subtitle "HI-TECH Software Omniscient Code Generator (Lite mode) build 49521"
   720  0000                     __CFG_LVP$OFF equ 0x0
   721                           opt subtitle "HI-TECH Software Omniscient Code Generator (Lite mode) build 49521"
   722  0000                     __CFG_PWRTE$OFF equ 0x0
   723                           opt subtitle "HI-TECH Software Omniscient Code Generator (Lite mode) build 49521"
   724  0000                     __CFG_BOR4V$BOR40V equ 0x0
   725                           opt subtitle "HI-TECH Software Omniscient Code Generator (Lite mode) build 49521"
   726  0000                     __CFG_WRT$OFF equ 0x0
   727                           opt subtitle "HI-TECH Software Omniscient Code Generator (Lite mode) build 49521"
   728                           
   729                           opt pagewidth 120
   730                           
   731  036B                     start_initialization:
   732                           opt subtitle "HI-TECH Software Omniscient Code Generator (Lite mode) build 49521"
   733                           
   734  036B                     __initialization:
   735                           opt subtitle "HI-TECH Software Omniscient Code Generator (Lite mode) build 49521"
   736                           
   737  0034                     __pbssBANK0:
   738  0034                     _inuse:
   739  0034                            ds      1
   740                           opt subtitle "HI-TECH Software Omniscient Code Generator (Lite mode) build 49521"
   741                           
   742                           opt pagewidth 120
   743  036B  01B4               	clrf	((__pbssBANK0)+0)&07Fh
   744                           opt subtitle "HI-TECH Software Omniscient Code Generator (Lite mode) build 49521"
   745                           
   746                           opt pagewidth 120
   747                           
   748                           	opt lm
   749  036C                     end_of_initialization:
   750  036C                     __end_of__initialization:clrf status
      + 036C  0183               	clrf	3
   751  036D  120A  118A  2E43   ljmp _main	;jump to C main() function
   752                           opt subtitle "HI-TECH Software Omniscient Code Generator (Lite mode) build 49521"
   753                           
   754  0070                     __pcstackCOMMON:
   755                           opt subtitle "HI-TECH Software Omniscient Code Generator (Lite mode) build 49521"
   756  0070                     ?_uart_write:	; 0 bytes @ 0x0
   757  0070                     ??_uart_init:	; 0 bytes @ 0x0
   758  0070                     ??_uart_open:	; 0 bytes @ 0x0
   759                           opt subtitle "HI-TECH Software Omniscient Code Generator (Lite mode) build 49521"
   760  0070                     ?_uart_puts:	; 0 bytes @ 0x0
   761  0070                     ??_spi_open:	; 0 bytes @ 0x0
   762  0070                     ??_spi_close:	; 0 bytes @ 0x0
   763  0070                     ??_spi_available:	; 0 bytes @ 0x0
   764  0070                     ?_putch:	; 0 bytes @ 0x0
   765  0070                     ?_main:	; 0 bytes @ 0x0
   766  0070                     ?_spi_init:	; 1 bytes @ 0x0
   767  0070                     ?_uart_init:	; 1 bytes @ 0x0
   768                           opt subtitle "HI-TECH Software Omniscient Code Generator (Lite mode) build 49521"
   769  0070                     ?_spi_control:	; 1 bytes @ 0x0
   770  0070                     ?_uart_open:	; 1 bytes @ 0x0
   771  0070                     ?_spi_open:	; 1 bytes @ 0x0
   772                           opt subtitle "HI-TECH Software Omniscient Code Generator (Lite mode) build 49521"
   773  0070                     ?_spi_trans:	; 1 bytes @ 0x0
   774  0070                     ?_spi_close:	; 1 bytes @ 0x0
   775  0070                     ?_spi_available:	; 1 bytes @ 0x0
   776                           opt subtitle "HI-TECH Software Omniscient Code Generator (Lite mode) build 49521"
   777  0070                     ?___lwdiv:	; 2 bytes @ 0x0
   778                           opt subtitle "HI-TECH Software Omniscient Code Generator (Lite mode) build 49521"
   779  0070                     ?___lldiv:	; 4 bytes @ 0x0
   780  0070                     spi_open@spid:	; 1 bytes @ 0x0
   781  0070                     spi_close@spid:	; 1 bytes @ 0x0
   782                           opt subtitle "HI-TECH Software Omniscient Code Generator (Lite mode) build 49521"
   783  0070                     spi_trans@data:	; 1 bytes @ 0x0
   784  0070                     spi_available@spid:	; 1 bytes @ 0x0
   785                           opt subtitle "HI-TECH Software Omniscient Code Generator (Lite mode) build 49521"
   786  0070                     uart_init@eUART:	; 1 bytes @ 0x0
   787                           opt subtitle "HI-TECH Software Omniscient Code Generator (Lite mode) build 49521"
   788  0070                     uart_open@uartd:	; 1 bytes @ 0x0
   789                           opt subtitle "HI-TECH Software Omniscient Code Generator (Lite mode) build 49521"
   790  0070                     uart_write@data:	; 1 bytes @ 0x0
   791                           opt subtitle "HI-TECH Software Omniscient Code Generator (Lite mode) build 49521"
   792  0070                     uart_puts@string:	; 1 bytes @ 0x0
   793                           opt subtitle "HI-TECH Software Omniscient Code Generator (Lite mode) build 49521"
   794  0070                     ___lwdiv@divisor:	; 2 bytes @ 0x0
   795                           opt subtitle "HI-TECH Software Omniscient Code Generator (Lite mode) build 49521"
   796  0070                     spi_control@ctrl:	; 4 bytes @ 0x0
   797                           opt subtitle "HI-TECH Software Omniscient Code Generator (Lite mode) build 49521"
   798  0070                     ___lldiv@divisor:	; 4 bytes @ 0x0
   799  0070                     	ds	1
   800  0071                     ??_uart_write:	; 0 bytes @ 0x1
   801  0071                     ??_uart_puts:	; 0 bytes @ 0x1
   802  0071                     ??_spi_trans:	; 0 bytes @ 0x1
   803                           opt subtitle "HI-TECH Software Omniscient Code Generator (Lite mode) build 49521"
   804  0071                     uart_write@uartd:	; 1 bytes @ 0x1
   805  0071                     	ds	1
   806  0072                     ??_putch:	; 0 bytes @ 0x2
   807                           opt subtitle "HI-TECH Software Omniscient Code Generator (Lite mode) build 49521"
   808  0072                     spi_trans@spid:	; 1 bytes @ 0x2
   809                           opt subtitle "HI-TECH Software Omniscient Code Generator (Lite mode) build 49521"
   810  0072                     uart_puts@uartd:	; 1 bytes @ 0x2
   811                           opt subtitle "HI-TECH Software Omniscient Code Generator (Lite mode) build 49521"
   812  0072                     ___lwdiv@dividend:	; 2 bytes @ 0x2
   813  0072                     	ds	1
   814                           opt subtitle "HI-TECH Software Omniscient Code Generator (Lite mode) build 49521"
   815  0073                     putch@data:	; 1 bytes @ 0x3
   816                           opt subtitle "HI-TECH Software Omniscient Code Generator (Lite mode) build 49521"
   817  0073                     spi_trans@rxtmp:	; 1 bytes @ 0x3
   818  0073                     	ds	1
   819  0074                     ??___lwdiv:	; 0 bytes @ 0x4
   820                           opt subtitle "HI-TECH Software Omniscient Code Generator (Lite mode) build 49521"
   821  0074                     spi_control@arg:	; 4 bytes @ 0x4
   822                           opt subtitle "HI-TECH Software Omniscient Code Generator (Lite mode) build 49521"
   823  0074                     ___lldiv@dividend:	; 4 bytes @ 0x4
   824  0074                     	ds	1
   825                           opt subtitle "HI-TECH Software Omniscient Code Generator (Lite mode) build 49521"
   826  0075                     ___lwdiv@quotient:	; 2 bytes @ 0x5
   827  0075                     	ds	2
   828                           opt subtitle "HI-TECH Software Omniscient Code Generator (Lite mode) build 49521"
   829  0077                     ___lwdiv@counter:	; 1 bytes @ 0x7
   830  0077                     	ds	1
   831  0078                     ??_spi_control:	; 0 bytes @ 0x8
   832  0078                     ??___lldiv:	; 0 bytes @ 0x8
   833                           opt subtitle "HI-TECH Software Omniscient Code Generator (Lite mode) build 49521"
   834  0078                     ?___lwmod:	; 2 bytes @ 0x8
   835                           opt subtitle "HI-TECH Software Omniscient Code Generator (Lite mode) build 49521"
   836  0078                     ___lwmod@divisor:	; 2 bytes @ 0x8
   837  0078                     	ds	1
   838                           opt subtitle "HI-TECH Software Omniscient Code Generator (Lite mode) build 49521"
   839  0079                     ___lldiv@quotient:	; 4 bytes @ 0x9
   840  0079                     	ds	1
   841                           opt subtitle "HI-TECH Software Omniscient Code Generator (Lite mode) build 49521"
   842  007A                     ___lwmod@dividend:	; 2 bytes @ 0xA
   843  007A                     	ds	2
   844  007C                     ??___lwmod:	; 0 bytes @ 0xC
   845                           opt subtitle "HI-TECH Software Omniscient Code Generator (Lite mode) build 49521"
   846  007C                     spi_control@spid:	; 1 bytes @ 0xC
   847  007C                     	ds	1
   848                           opt subtitle "HI-TECH Software Omniscient Code Generator (Lite mode) build 49521"
   849  007D                     spi_control@speed:	; 1 bytes @ 0xD
   850                           opt subtitle "HI-TECH Software Omniscient Code Generator (Lite mode) build 49521"
   851  007D                     ___lwmod@counter:	; 1 bytes @ 0xD
   852                           opt subtitle "HI-TECH Software Omniscient Code Generator (Lite mode) build 49521"
   853  007D                     ___lldiv@counter:	; 1 bytes @ 0xD
   854  007D                     	ds	1
   855  007E                     ??_spi_init:	; 0 bytes @ 0xE
   856                           opt subtitle "HI-TECH Software Omniscient Code Generator (Lite mode) build 49521"
   857                           
   858  0020                     __pcstackBANK0:
   859                           opt subtitle "HI-TECH Software Omniscient Code Generator (Lite mode) build 49521"
   860  0020                     ?_uart_control:	; 1 bytes @ 0x0
   861                           opt subtitle "HI-TECH Software Omniscient Code Generator (Lite mode) build 49521"
   862  0020                     ?_printf:	; 2 bytes @ 0x0
   863                           opt subtitle "HI-TECH Software Omniscient Code Generator (Lite mode) build 49521"
   864  0020                     spi_init@eModule:	; 1 bytes @ 0x0
   865  0020                     uart_control@ctrl:	; 4 bytes @ 0x0
   866  0020                     	ds	2
   867  0022                     ??_printf:	; 0 bytes @ 0x2
   868  0022                     	ds	2
   869                           opt subtitle "HI-TECH Software Omniscient Code Generator (Lite mode) build 49521"
   870  0024                     uart_control@arg:	; 4 bytes @ 0x4
   871  0024                     	ds	1
   872                           opt subtitle "HI-TECH Software Omniscient Code Generator (Lite mode) build 49521"
   873  0025                     printf@ap:	; 1 bytes @ 0x5
   874  0025                     	ds	1
   875                           opt subtitle "HI-TECH Software Omniscient Code Generator (Lite mode) build 49521"
   876  0026                     printf@flag:	; 1 bytes @ 0x6
   877  0026                     	ds	1
   878                           opt subtitle "HI-TECH Software Omniscient Code Generator (Lite mode) build 49521"
   879  0027                     printf@f:	; 1 bytes @ 0x7
   880  0027                     	ds	1
   881  0028                     ??_uart_control:	; 0 bytes @ 0x8
   882                           opt subtitle "HI-TECH Software Omniscient Code Generator (Lite mode) build 49521"
   883  0028                     printf@prec:	; 1 bytes @ 0x8
   884  0028                     	ds	1
   885                           opt subtitle "HI-TECH Software Omniscient Code Generator (Lite mode) build 49521"
   886  0029                     printf@_val:	; 4 bytes @ 0x9
   887  0029                     	ds	3
   888                           opt subtitle "HI-TECH Software Omniscient Code Generator (Lite mode) build 49521"
   889  002C                     uart_control@uartd:	; 1 bytes @ 0xC
   890  002C                     	ds	1
   891                           opt subtitle "HI-TECH Software Omniscient Code Generator (Lite mode) build 49521"
   892  002D                     printf@c:	; 1 bytes @ 0xD
   893  002D                     	ds	1
   894  002E                     ??_main:	; 0 bytes @ 0xE
   895  002E                     	ds	2
   896                           opt subtitle "HI-TECH Software Omniscient Code Generator (Lite mode) build 49521"
   897  0030                     main@rx:	; 1 bytes @ 0x10
   898  0030                     	ds	1
   899                           opt subtitle "HI-TECH Software Omniscient Code Generator (Lite mode) build 49521"
   900  0031                     main@i:	; 1 bytes @ 0x11
   901  0031                     	ds	1
   902                           opt subtitle "HI-TECH Software Omniscient Code Generator (Lite mode) build 49521"
   903                           
   904                           opt pagewidth 120
   905                           
   906                           	opt lm
   907                           
   908                           	processor	16F887
   909                           clrc	macro
   910                           	bcf	3,0
   911                           	endm
   912                           clrz	macro
   913                           	bcf	3,2
   914                           	endm
   915                           setc	macro
   916                           	bsf	3,0
   917                           	endm
   918                           setz	macro
   919                           	bsf	3,2
   920                           	endm
   921                           skipc	macro
   922                           	btfss	3,0
   923                           	endm
   924                           skipz	macro
   925                           	btfss	3,2
   926                           	endm
   927                           skipnc	macro
   928                           	btfsc	3,0
   929                           	endm
   930                           skipnz	macro
   931                           	btfsc	3,2
   932                           	endm
   933                           indf	equ	0
   934                           indf0	equ	0
   935                           pc	equ	2
   936                           pcl	equ	2
   937                           status	equ	3
   938                           fsr	equ	4
   939                           fsr0	equ	4
   940                           c	equ	1
   941                           z	equ	0
   942                           pclath	equ	10
   943                           # 46 "C:\Program Files (x86)\Microchip\xc8\v1.12\include\pic16f887.h"
   944                           INDF equ 00h ;# 
   945                           # 52 "C:\Program Files (x86)\Microchip\xc8\v1.12\include\pic16f887.h"
   946                           TMR0 equ 01h ;# 
   947                           # 58 "C:\Program Files (x86)\Microchip\xc8\v1.12\include\pic16f887.h"
   948                           PCL equ 02h ;# 
   949                           # 64 "C:\Program Files (x86)\Microchip\xc8\v1.12\include\pic16f887.h"
   950                           STATUS equ 03h ;# 
   951                           # 151 "C:\Program Files (x86)\Microchip\xc8\v1.12\include\pic16f887.h"
   952                           FSR equ 04h ;# 
   953                           # 157 "C:\Program Files (x86)\Microchip\xc8\v1.12\include\pic16f887.h"
   954                           PORTA equ 05h ;# 
   955                           # 218 "C:\Program Files (x86)\Microchip\xc8\v1.12\include\pic16f887.h"
   956                           PORTB equ 06h ;# 
   957                           # 279 "C:\Program Files (x86)\Microchip\xc8\v1.12\include\pic16f887.h"
   958                           PORTC equ 07h ;# 
   959                           # 340 "C:\Program Files (x86)\Microchip\xc8\v1.12\include\pic16f887.h"
   960                           PORTD equ 08h ;# 
   961                           # 401 "C:\Program Files (x86)\Microchip\xc8\v1.12\include\pic16f887.h"
   962                           PORTE equ 09h ;# 
   963                           # 438 "C:\Program Files (x86)\Microchip\xc8\v1.12\include\pic16f887.h"
   964                           PCLATH equ 0Ah ;# 
   965                           # 444 "C:\Program Files (x86)\Microchip\xc8\v1.12\include\pic16f887.h"
   966                           INTCON equ 0Bh ;# 
   967                           # 521 "C:\Program Files (x86)\Microchip\xc8\v1.12\include\pic16f887.h"
   968                           PIR1 equ 0Ch ;# 
   969                           # 576 "C:\Program Files (x86)\Microchip\xc8\v1.12\include\pic16f887.h"
   970                           PIR2 equ 0Dh ;# 
   971                           # 632 "C:\Program Files (x86)\Microchip\xc8\v1.12\include\pic16f887.h"
   972                           TMR1 equ 0Eh ;# 
   973                           # 638 "C:\Program Files (x86)\Microchip\xc8\v1.12\include\pic16f887.h"
   974                           TMR1L equ 0Eh ;# 
   975                           # 644 "C:\Program Files (x86)\Microchip\xc8\v1.12\include\pic16f887.h"
   976                           TMR1H equ 0Fh ;# 
   977                           # 650 "C:\Program Files (x86)\Microchip\xc8\v1.12\include\pic16f887.h"
   978                           T1CON equ 010h ;# 
   979                           # 743 "C:\Program Files (x86)\Microchip\xc8\v1.12\include\pic16f887.h"
   980                           TMR2 equ 011h ;# 
   981                           # 749 "C:\Program Files (x86)\Microchip\xc8\v1.12\include\pic16f887.h"
   982                           T2CON equ 012h ;# 
   983                           # 819 "C:\Program Files (x86)\Microchip\xc8\v1.12\include\pic16f887.h"
   984                           SSPBUF equ 013h ;# 
   985                           # 825 "C:\Program Files (x86)\Microchip\xc8\v1.12\include\pic16f887.h"
   986                           SSPCON equ 014h ;# 
   987                           # 894 "C:\Program Files (x86)\Microchip\xc8\v1.12\include\pic16f887.h"
   988                           CCPR1 equ 015h ;# 
   989                           # 900 "C:\Program Files (x86)\Microchip\xc8\v1.12\include\pic16f887.h"
   990                           CCPR1L equ 015h ;# 
   991                           # 906 "C:\Program Files (x86)\Microchip\xc8\v1.12\include\pic16f887.h"
   992                           CCPR1H equ 016h ;# 
   993                           # 912 "C:\Program Files (x86)\Microchip\xc8\v1.12\include\pic16f887.h"
   994                           CCP1CON equ 017h ;# 
   995                           # 1008 "C:\Program Files (x86)\Microchip\xc8\v1.12\include\pic16f887.h"
   996                           RCSTA equ 018h ;# 
   997                           # 1102 "C:\Program Files (x86)\Microchip\xc8\v1.12\include\pic16f887.h"
   998                           TXREG equ 019h ;# 
   999                           # 1108 "C:\Program Files (x86)\Microchip\xc8\v1.12\include\pic16f887.h"
  1000                           RCREG equ 01Ah ;# 
  1001                           # 1114 "C:\Program Files (x86)\Microchip\xc8\v1.12\include\pic16f887.h"
  1002                           CCPR2 equ 01Bh ;# 
  1003                           # 1120 "C:\Program Files (x86)\Microchip\xc8\v1.12\include\pic16f887.h"
  1004                           CCPR2L equ 01Bh ;# 
  1005                           # 1126 "C:\Program Files (x86)\Microchip\xc8\v1.12\include\pic16f887.h"
  1006                           CCPR2H equ 01Ch ;# 
  1007                           # 1132 "C:\Program Files (x86)\Microchip\xc8\v1.12\include\pic16f887.h"
  1008                           CCP2CON equ 01Dh ;# 
  1009                           # 1201 "C:\Program Files (x86)\Microchip\xc8\v1.12\include\pic16f887.h"
  1010                           ADRESH equ 01Eh ;# 
  1011                           # 1207 "C:\Program Files (x86)\Microchip\xc8\v1.12\include\pic16f887.h"
  1012                           ADCON0 equ 01Fh ;# 
  1013                           # 1307 "C:\Program Files (x86)\Microchip\xc8\v1.12\include\pic16f887.h"
  1014                           OPTION_REG equ 081h ;# 
  1015                           # 1376 "C:\Program Files (x86)\Microchip\xc8\v1.12\include\pic16f887.h"
  1016                           TRISA equ 085h ;# 
  1017                           # 1437 "C:\Program Files (x86)\Microchip\xc8\v1.12\include\pic16f887.h"
  1018                           TRISB equ 086h ;# 
  1019                           # 1498 "C:\Program Files (x86)\Microchip\xc8\v1.12\include\pic16f887.h"
  1020                           TRISC equ 087h ;# 
  1021                           # 1559 "C:\Program Files (x86)\Microchip\xc8\v1.12\include\pic16f887.h"
  1022                           TRISD equ 088h ;# 
  1023                           # 1620 "C:\Program Files (x86)\Microchip\xc8\v1.12\include\pic16f887.h"
  1024                           TRISE equ 089h ;# 
  1025                           # 1657 "C:\Program Files (x86)\Microchip\xc8\v1.12\include\pic16f887.h"
  1026                           PIE1 equ 08Ch ;# 
  1027                           # 1712 "C:\Program Files (x86)\Microchip\xc8\v1.12\include\pic16f887.h"
  1028                           PIE2 equ 08Dh ;# 
  1029                           # 1768 "C:\Program Files (x86)\Microchip\xc8\v1.12\include\pic16f887.h"
  1030                           PCON equ 08Eh ;# 
  1031                           # 1814 "C:\Program Files (x86)\Microchip\xc8\v1.12\include\pic16f887.h"
  1032                           OSCCON equ 08Fh ;# 
  1033                           # 1878 "C:\Program Files (x86)\Microchip\xc8\v1.12\include\pic16f887.h"
  1034                           OSCTUNE equ 090h ;# 
  1035                           # 1929 "C:\Program Files (x86)\Microchip\xc8\v1.12\include\pic16f887.h"
  1036                           SSPCON2 equ 091h ;# 
  1037                           # 1990 "C:\Program Files (x86)\Microchip\xc8\v1.12\include\pic16f887.h"
  1038                           PR2 equ 092h ;# 
  1039                           # 1996 "C:\Program Files (x86)\Microchip\xc8\v1.12\include\pic16f887.h"
  1040                           SSPADD equ 093h ;# 
  1041                           # 2002 "C:\Program Files (x86)\Microchip\xc8\v1.12\include\pic16f887.h"
  1042                           SSPMSK equ 093h ;# 
  1043                           # 2007 "C:\Program Files (x86)\Microchip\xc8\v1.12\include\pic16f887.h"
  1044                           MSK equ 093h ;# 
  1045                           # 2123 "C:\Program Files (x86)\Microchip\xc8\v1.12\include\pic16f887.h"
  1046                           SSPSTAT equ 094h ;# 
  1047                           # 2291 "C:\Program Files (x86)\Microchip\xc8\v1.12\include\pic16f887.h"
  1048                           WPUB equ 095h ;# 
  1049                           # 2360 "C:\Program Files (x86)\Microchip\xc8\v1.12\include\pic16f887.h"
  1050                           IOCB equ 096h ;# 
  1051                           # 2429 "C:\Program Files (x86)\Microchip\xc8\v1.12\include\pic16f887.h"
  1052                           VRCON equ 097h ;# 
  1053                           # 2498 "C:\Program Files (x86)\Microchip\xc8\v1.12\include\pic16f887.h"
  1054                           TXSTA equ 098h ;# 
  1055                           # 2583 "C:\Program Files (x86)\Microchip\xc8\v1.12\include\pic16f887.h"
  1056                           SPBRG equ 099h ;# 
  1057                           # 2644 "C:\Program Files (x86)\Microchip\xc8\v1.12\include\pic16f887.h"
  1058                           SPBRGH equ 09Ah ;# 
  1059                           # 2713 "C:\Program Files (x86)\Microchip\xc8\v1.12\include\pic16f887.h"
  1060                           PWM1CON equ 09Bh ;# 
  1061                           # 2782 "C:\Program Files (x86)\Microchip\xc8\v1.12\include\pic16f887.h"
  1062                           ECCPAS equ 09Ch ;# 
  1063                           # 2863 "C:\Program Files (x86)\Microchip\xc8\v1.12\include\pic16f887.h"
  1064                           PSTRCON equ 09Dh ;# 
  1065                           # 2906 "C:\Program Files (x86)\Microchip\xc8\v1.12\include\pic16f887.h"
  1066                           ADRESL equ 09Eh ;# 
  1067                           # 2912 "C:\Program Files (x86)\Microchip\xc8\v1.12\include\pic16f887.h"
  1068                           ADCON1 equ 09Fh ;# 
  1069                           # 2945 "C:\Program Files (x86)\Microchip\xc8\v1.12\include\pic16f887.h"
  1070                           WDTCON equ 0105h ;# 
  1071                           # 2997 "C:\Program Files (x86)\Microchip\xc8\v1.12\include\pic16f887.h"
  1072                           CM1CON0 equ 0107h ;# 
  1073                           # 3061 "C:\Program Files (x86)\Microchip\xc8\v1.12\include\pic16f887.h"
  1074                           CM2CON0 equ 0108h ;# 
  1075                           # 3125 "C:\Program Files (x86)\Microchip\xc8\v1.12\include\pic16f887.h"
  1076                           CM2CON1 equ 0109h ;# 
  1077                           # 3175 "C:\Program Files (x86)\Microchip\xc8\v1.12\include\pic16f887.h"
  1078                           EEDATA equ 010Ch ;# 
  1079                           # 3180 "C:\Program Files (x86)\Microchip\xc8\v1.12\include\pic16f887.h"
  1080                           EEDAT equ 010Ch ;# 
  1081                           # 3186 "C:\Program Files (x86)\Microchip\xc8\v1.12\include\pic16f887.h"
  1082                           EEADR equ 010Dh ;# 
  1083                           # 3192 "C:\Program Files (x86)\Microchip\xc8\v1.12\include\pic16f887.h"
  1084                           EEDATH equ 010Eh ;# 
  1085                           # 3198 "C:\Program Files (x86)\Microchip\xc8\v1.12\include\pic16f887.h"
  1086                           EEADRH equ 010Fh ;# 
  1087                           # 3204 "C:\Program Files (x86)\Microchip\xc8\v1.12\include\pic16f887.h"
  1088                           SRCON equ 0185h ;# 
  1089                           # 3260 "C:\Program Files (x86)\Microchip\xc8\v1.12\include\pic16f887.h"
  1090                           BAUDCTL equ 0187h ;# 
  1091                           # 3311 "C:\Program Files (x86)\Microchip\xc8\v1.12\include\pic16f887.h"
  1092                           ANSEL equ 0188h ;# 
  1093                           # 3372 "C:\Program Files (x86)\Microchip\xc8\v1.12\include\pic16f887.h"
  1094                           ANSELH equ 0189h ;# 
  1095                           # 3421 "C:\Program Files (x86)\Microchip\xc8\v1.12\include\pic16f887.h"
  1096                           EECON1 equ 018Ch ;# 
  1097                           # 3465 "C:\Program Files (x86)\Microchip\xc8\v1.12\include\pic16f887.h"
  1098                           EECON2 equ 018Dh ;# 
  1099                           # 46 "C:\Program Files (x86)\Microchip\xc8\v1.12\include\pic16f887.h"
  1100                           INDF equ 00h ;# 
  1101                           # 52 "C:\Program Files (x86)\Microchip\xc8\v1.12\include\pic16f887.h"
  1102                           TMR0 equ 01h ;# 
  1103                           # 58 "C:\Program Files (x86)\Microchip\xc8\v1.12\include\pic16f887.h"
  1104                           PCL equ 02h ;# 
  1105                           # 64 "C:\Program Files (x86)\Microchip\xc8\v1.12\include\pic16f887.h"
  1106                           STATUS equ 03h ;# 
  1107                           # 151 "C:\Program Files (x86)\Microchip\xc8\v1.12\include\pic16f887.h"
  1108                           FSR equ 04h ;# 
  1109                           # 157 "C:\Program Files (x86)\Microchip\xc8\v1.12\include\pic16f887.h"
  1110                           PORTA equ 05h ;# 
  1111                           # 218 "C:\Program Files (x86)\Microchip\xc8\v1.12\include\pic16f887.h"
  1112                           PORTB equ 06h ;# 
  1113                           # 279 "C:\Program Files (x86)\Microchip\xc8\v1.12\include\pic16f887.h"
  1114                           PORTC equ 07h ;# 
  1115                           # 340 "C:\Program Files (x86)\Microchip\xc8\v1.12\include\pic16f887.h"
  1116                           PORTD equ 08h ;# 
  1117                           # 401 "C:\Program Files (x86)\Microchip\xc8\v1.12\include\pic16f887.h"
  1118                           PORTE equ 09h ;# 
  1119                           # 438 "C:\Program Files (x86)\Microchip\xc8\v1.12\include\pic16f887.h"
  1120                           PCLATH equ 0Ah ;# 
  1121                           # 444 "C:\Program Files (x86)\Microchip\xc8\v1.12\include\pic16f887.h"
  1122                           INTCON equ 0Bh ;# 
  1123                           # 521 "C:\Program Files (x86)\Microchip\xc8\v1.12\include\pic16f887.h"
  1124                           PIR1 equ 0Ch ;# 
  1125                           # 576 "C:\Program Files (x86)\Microchip\xc8\v1.12\include\pic16f887.h"
  1126                           PIR2 equ 0Dh ;# 
  1127                           # 632 "C:\Program Files (x86)\Microchip\xc8\v1.12\include\pic16f887.h"
  1128                           TMR1 equ 0Eh ;# 
  1129                           # 638 "C:\Program Files (x86)\Microchip\xc8\v1.12\include\pic16f887.h"
  1130                           TMR1L equ 0Eh ;# 
  1131                           # 644 "C:\Program Files (x86)\Microchip\xc8\v1.12\include\pic16f887.h"
  1132                           TMR1H equ 0Fh ;# 
  1133                           # 650 "C:\Program Files (x86)\Microchip\xc8\v1.12\include\pic16f887.h"
  1134                           T1CON equ 010h ;# 
  1135                           # 743 "C:\Program Files (x86)\Microchip\xc8\v1.12\include\pic16f887.h"
  1136                           TMR2 equ 011h ;# 
  1137                           # 749 "C:\Program Files (x86)\Microchip\xc8\v1.12\include\pic16f887.h"
  1138                           T2CON equ 012h ;# 
  1139                           # 819 "C:\Program Files (x86)\Microchip\xc8\v1.12\include\pic16f887.h"
  1140                           SSPBUF equ 013h ;# 
  1141                           # 825 "C:\Program Files (x86)\Microchip\xc8\v1.12\include\pic16f887.h"
  1142                           SSPCON equ 014h ;# 
  1143  0643                     __pmaintext:	;psect for function _main
  1144                           opt subtitle "HI-TECH Software Omniscient Code Generator (Lite mode) build 49521"
  1145                           
  1146                           opt pagewidth 120
  1147                           
  1148  00CE                     	__size_of_main	equ	__end_of_main-_main
  1149                           opt subtitle "HI-TECH Software Omniscient Code Generator (Lite mode) build 49521"
  1150  0643                     _main:	
  1151                           opt subtitle "HI-TECH Software Omniscient Code Generator (Lite mode) build 49521"
  1152                           
  1153                           opt pagewidth 120
  1154                           
  1155  0643                     l1660:	
  1156                           opt subtitle "HI-TECH Software Omniscient Code Generator (Lite mode) build 49521"
  1157  0643  1683               	bsf	status, 5	;RP0=1, select bank3
  1158  0644  1703               	bsf	status, 6	;RP1=1, select bank3
  1159  0645  0188               	clrf	(392)^0180h	;volatile
  1160                           opt subtitle "HI-TECH Software Omniscient Code Generator (Lite mode) build 49521"
  1161                           
  1162  0646                     l1662:	
  1163                           opt subtitle "HI-TECH Software Omniscient Code Generator (Lite mode) build 49521"
  1164  0646  1683               	bsf	status, 5	;RP0=1, select bank1
  1165  0647  1303               	bcf	status, 6	;RP1=0, select bank1
  1166  0648  1187               	bcf	(135)^080h,3	;volatile
  1167                           opt subtitle "HI-TECH Software Omniscient Code Generator (Lite mode) build 49521"
  1168                           
  1169  0649                     l1664:	
  1170                           opt subtitle "HI-TECH Software Omniscient Code Generator (Lite mode) build 49521"
  1171  0649  1607               	bsf	(135)^080h,4	;volatile
  1172                           opt subtitle "HI-TECH Software Omniscient Code Generator (Lite mode) build 49521"
  1173                           
  1174  064A                     l1666:	
  1175                           opt subtitle "HI-TECH Software Omniscient Code Generator (Lite mode) build 49521"
  1176  064A  1287               	bcf	(135)^080h,5	;volatile
  1177                           opt subtitle "HI-TECH Software Omniscient Code Generator (Lite mode) build 49521"
  1178                           
  1179  064B                     l1668:	
  1180                           opt subtitle "HI-TECH Software Omniscient Code Generator (Lite mode) build 49521"
  1181                           
  1182  064B  3001               	movlw	(01h)
  1183  064C  120A  118A  2419   	fcall	_spi_init
              120A  118A         
  1184  0651  1283               	bcf	status, 5	;RP0=0, select bank0
  1185  0652  1303               	bcf	status, 6	;RP1=0, select bank0
  1186  0653  00AE               	movwf	(??_main+0)+0
  1187  0654  082E               	movf	(??_main+0)+0,w
  1188  0655  00B2               	movwf	(_spi1)
  1189                           opt subtitle "HI-TECH Software Omniscient Code Generator (Lite mode) build 49521"
  1190                           
  1191  0656                     l1670:	
  1192                           opt subtitle "HI-TECH Software Omniscient Code Generator (Lite mode) build 49521"
  1193  0656  3001               	movlw	(01h)
  1194  0657  120A  118A  23A1   	fcall	_uart_init
              120A  118A         
  1195  065C  1283               	bcf	status, 5	;RP0=0, select bank0
  1196  065D  1303               	bcf	status, 6	;RP1=0, select bank0
  1197  065E  00AE               	movwf	(??_main+0)+0
  1198  065F  082E               	movf	(??_main+0)+0,w
  1199  0660  00B3               	movwf	(_uart1)
  1200                           opt subtitle "HI-TECH Software Omniscient Code Generator (Lite mode) build 49521"
  1201                           
  1202  0661                     l1672:	
  1203                           opt subtitle "HI-TECH Software Omniscient Code Generator (Lite mode) build 49521"
  1204  0661  3000               	movlw	0
  1205  0662  00A3               	movwf	(?_uart_control+3)
  1206  0663  3000               	movlw	0
  1207  0664  00A2               	movwf	(?_uart_control+2)
  1208  0665  3011               	movlw	011h
  1209  0666  00A1               	movwf	(?_uart_control+1)
  1210  0667  3010               	movlw	010h
  1211  0668  00A0               	movwf	(?_uart_control)
  1212                           opt subtitle "HI-TECH Software Omniscient Code Generator (Lite mode) build 49521"
  1213  0669  3000               	movlw	0
  1214  066A  00A7               	movwf	3+(?_uart_control)+04h
  1215  066B  3000               	movlw	0
  1216  066C  00A6               	movwf	2+(?_uart_control)+04h
  1217  066D  3025               	movlw	025h
  1218  066E  00A5               	movwf	1+(?_uart_control)+04h
  1219  066F  3080               	movlw	080h
  1220  0670  00A4               	movwf	0+(?_uart_control)+04h
  1221                           opt subtitle "HI-TECH Software Omniscient Code Generator (Lite mode) build 49521"
  1222  0671  0833               	movf	(_uart1),w
  1223  0672  120A  118A  24D6   	fcall	_uart_control
              120A  118A         
  1224                           opt subtitle "HI-TECH Software Omniscient Code Generator (Lite mode) build 49521"
  1225                           
  1226  0677                     l1674:	
  1227                           opt subtitle "HI-TECH Software Omniscient Code Generator (Lite mode) build 49521"
  1228  0677  3000               	movlw	0
  1229  0678  00F3               	movwf	(?_spi_control+3)
  1230  0679  3000               	movlw	0
  1231  067A  00F2               	movwf	(?_spi_control+2)
  1232  067B  3000               	movlw	0
  1233  067C  00F1               	movwf	(?_spi_control+1)
  1234  067D  3011               	movlw	011h
  1235  067E  00F0               	movwf	(?_spi_control)
  1236                           opt subtitle "HI-TECH Software Omniscient Code Generator (Lite mode) build 49521"
  1237  067F  3000               	movlw	0
  1238  0680  00F7               	movwf	3+(?_spi_control)+04h
  1239  0681  3000               	movlw	0
  1240  0682  00F6               	movwf	2+(?_spi_control)+04h
  1241  0683  3000               	movlw	0
  1242  0684  00F5               	movwf	1+(?_spi_control)+04h
  1243  0685  3007               	movlw	07h
  1244  0686  00F4               	movwf	0+(?_spi_control)+04h
  1245                           opt subtitle "HI-TECH Software Omniscient Code Generator (Lite mode) build 49521"
  1246  0687  1283               	bcf	status, 5	;RP0=0, select bank0
  1247  0688  1303               	bcf	status, 6	;RP1=0, select bank0
  1248  0689  0832               	movf	(_spi1),w
  1249  068A  120A  118A  2590   	fcall	_spi_control
              120A  118A         
  1250                           opt subtitle "HI-TECH Software Omniscient Code Generator (Lite mode) build 49521"
  1251                           
  1252  068F                     l1676:	
  1253                           opt subtitle "HI-TECH Software Omniscient Code Generator (Lite mode) build 49521"
  1254  068F  1283               	bcf	status, 5	;RP0=0, select bank0
  1255  0690  1303               	bcf	status, 6	;RP1=0, select bank0
  1256  0691  0833               	movf	(_uart1),w
  1257  0692  120A  118A  23B7   	fcall	_uart_open
              120A  118A         
  1258  0697  3800               	iorlw	0
  1259  0698  1D03               	skipz
  1260  0699  2E9B               	goto	u1281
  1261  069A  2E9C               	goto	u1280
  1262  069B                     u1281:
  1263  069B  2E9E               	goto	l1678
  1264  069C                     u1280:
  1265                           opt subtitle "HI-TECH Software Omniscient Code Generator (Lite mode) build 49521"
  1266                           
  1267                           opt pagewidth 120
  1268  069C                     l37:	
  1269  069C  2E9C               	goto	l37
  1270                           opt subtitle "HI-TECH Software Omniscient Code Generator (Lite mode) build 49521"
  1271  069D                     l38:	
  1272  069D  2E9E               	goto	l1678
  1273                           opt subtitle "HI-TECH Software Omniscient Code Generator (Lite mode) build 49521"
  1274  069E                     l36:	
  1275                           opt subtitle "HI-TECH Software Omniscient Code Generator (Lite mode) build 49521"
  1276                           
  1277  069E                     l1678:	
  1278                           opt subtitle "HI-TECH Software Omniscient Code Generator (Lite mode) build 49521"
  1279  069E  3046               	movlw	((STR_1-__stringbase))&0ffh
  1280  069F  1283               	bcf	status, 5	;RP0=0, select bank0
  1281  06A0  1303               	bcf	status, 6	;RP1=0, select bank0
  1282  06A1  00AE               	movwf	(??_main+0)+0
  1283  06A2  082E               	movf	(??_main+0)+0,w
  1284  06A3  00F0               	movwf	(?_uart_puts)
  1285  06A4  0833               	movf	(_uart1),w
  1286  06A5  120A  118A  23EC   	fcall	_uart_puts
              120A  118A         
  1287                           opt subtitle "HI-TECH Software Omniscient Code Generator (Lite mode) build 49521"
  1288                           
  1289  06AA                     l1680:	
  1290                           opt subtitle "HI-TECH Software Omniscient Code Generator (Lite mode) build 49521"
  1291  06AA  1283               	bcf	status, 5	;RP0=0, select bank0
  1292  06AB  1303               	bcf	status, 6	;RP1=0, select bank0
  1293  06AC  0832               	movf	(_spi1),w
  1294  06AD  120A  118A  2377   	fcall	_spi_open
              120A  118A         
  1295  06B2  3A00               	xorlw	0
  1296  06B3  1903               	skipnz
  1297  06B4  2EB6               	goto	u1291
  1298  06B5  2EB7               	goto	u1290
  1299  06B6                     u1291:
  1300  06B6  2F0D               	goto	l42
  1301  06B7                     u1290:
  1302                           opt subtitle "HI-TECH Software Omniscient Code Generator (Lite mode) build 49521"
  1303                           
  1304  06B7                     l1682:	
  1305                           opt subtitle "HI-TECH Software Omniscient Code Generator (Lite mode) build 49521"
  1306  06B7  1283               	bcf	status, 5	;RP0=0, select bank0
  1307  06B8  1303               	bcf	status, 6	;RP1=0, select bank0
  1308  06B9  01B1               	clrf	(main@i)
  1309                           opt subtitle "HI-TECH Software Omniscient Code Generator (Lite mode) build 49521"
  1310  06BA                     l1684:	
  1311  06BA  0831               	movf	(main@i),w
  1312  06BB  3AFF               	xorlw	0FFh
  1313  06BC  1D03               	skipz
  1314  06BD  2EBF               	goto	u1301
  1315  06BE  2EC0               	goto	u1300
  1316  06BF                     u1301:
  1317  06BF  2EC2               	goto	l1688
  1318  06C0                     u1300:
  1319  06C0  2EFA               	goto	l1698
  1320                           opt subtitle "HI-TECH Software Omniscient Code Generator (Lite mode) build 49521"
  1321  06C1                     l1686:	
  1322  06C1  2EFA               	goto	l1698
  1323                           opt subtitle "HI-TECH Software Omniscient Code Generator (Lite mode) build 49521"
  1324  06C2                     l40:	
  1325                           opt subtitle "HI-TECH Software Omniscient Code Generator (Lite mode) build 49521"
  1326                           
  1327  06C2                     l1688:	
  1328                           opt subtitle "HI-TECH Software Omniscient Code Generator (Lite mode) build 49521"
  1329  06C2  0831               	movf	(main@i),w
  1330  06C3  00AE               	movwf	(??_main+0)+0+0
  1331  06C4  01AF               	clrf	(??_main+0)+0+1
  1332  06C5  082E               	movf	0+(??_main+0)+0,w
  1333  06C6  00A0               	movwf	(?_printf)
  1334  06C7  082F               	movf	1+(??_main+0)+0,w
  1335  06C8  00A1               	movwf	(?_printf+1)
  1336  06C9  3022               	movlw	((STR_2-__stringbase))&0ffh
  1337  06CA  120A  118A  2711   	fcall	_printf
              120A  118A         
  1338                           opt subtitle "HI-TECH Software Omniscient Code Generator (Lite mode) build 49521"
  1339                           
  1340  06CF                     l1690:	
  1341                           opt subtitle "HI-TECH Software Omniscient Code Generator (Lite mode) build 49521"
  1342  06CF  1283               	bcf	status, 5	;RP0=0, select bank0
  1343  06D0  1303               	bcf	status, 6	;RP1=0, select bank0
  1344  06D1  0831               	movf	(main@i),w
  1345  06D2  00AE               	movwf	(??_main+0)+0
  1346  06D3  082E               	movf	(??_main+0)+0,w
  1347  06D4  00F0               	movwf	(?_spi_trans)
  1348  06D5  0832               	movf	(_spi1),w
  1349  06D6  120A  118A  23D0   	fcall	_spi_trans
              120A  118A         
  1350  06DB  1283               	bcf	status, 5	;RP0=0, select bank0
  1351  06DC  1303               	bcf	status, 6	;RP1=0, select bank0
  1352  06DD  00AF               	movwf	(??_main+1)+0
  1353  06DE  082F               	movf	(??_main+1)+0,w
  1354  06DF  00B0               	movwf	(main@rx)
  1355                           opt subtitle "HI-TECH Software Omniscient Code Generator (Lite mode) build 49521"
  1356                           
  1357  06E0                     l1692:	
  1358                           opt subtitle "HI-TECH Software Omniscient Code Generator (Lite mode) build 49521"
  1359  06E0  0830               	movf	(main@rx),w
  1360  06E1  00AE               	movwf	(??_main+0)+0+0
  1361  06E2  01AF               	clrf	(??_main+0)+0+1
  1362  06E3  082E               	movf	0+(??_main+0)+0,w
  1363  06E4  00A0               	movwf	(?_printf)
  1364  06E5  082F               	movf	1+(??_main+0)+0,w
  1365  06E6  00A1               	movwf	(?_printf+1)
  1366  06E7  300B               	movlw	((STR_3-__stringbase))&0ffh
  1367  06E8  120A  118A  2711   	fcall	_printf
              120A  118A         
  1368                           opt subtitle "HI-TECH Software Omniscient Code Generator (Lite mode) build 49521"
  1369                           
  1370  06ED                     l1694:	
  1371  06ED  3001               	movlw	(01h)
  1372  06EE  1283               	bcf	status, 5	;RP0=0, select bank0
  1373  06EF  1303               	bcf	status, 6	;RP1=0, select bank0
  1374  06F0  00AE               	movwf	(??_main+0)+0
  1375  06F1  082E               	movf	(??_main+0)+0,w
  1376  06F2  07B1               	addwf	(main@i),f
  1377                           opt subtitle "HI-TECH Software Omniscient Code Generator (Lite mode) build 49521"
  1378  06F3                     l1696:	
  1379  06F3  0831               	movf	(main@i),w
  1380  06F4  3AFF               	xorlw	0FFh
  1381  06F5  1D03               	skipz
  1382  06F6  2EF8               	goto	u1311
  1383  06F7  2EF9               	goto	u1310
  1384  06F8                     u1311:
  1385  06F8  2EC2               	goto	l1688
  1386  06F9                     u1310:
  1387  06F9  2EFA               	goto	l1698
  1388                           opt subtitle "HI-TECH Software Omniscient Code Generator (Lite mode) build 49521"
  1389  06FA                     l41:	
  1390                           opt subtitle "HI-TECH Software Omniscient Code Generator (Lite mode) build 49521"
  1391                           
  1392  06FA                     l1698:	
  1393                           opt subtitle "HI-TECH Software Omniscient Code Generator (Lite mode) build 49521"
  1394                           
  1395  06FA  0832               	movf	(_spi1),w
  1396  06FB  120A  118A  2366   	fcall	_spi_close
              120A  118A         
  1397                           opt subtitle "HI-TECH Software Omniscient Code Generator (Lite mode) build 49521"
  1398                           
  1399  0700                     l1700:	
  1400                           opt subtitle "HI-TECH Software Omniscient Code Generator (Lite mode) build 49521"
  1401  0700  3034               	movlw	((STR_4-__stringbase))&0ffh
  1402  0701  1283               	bcf	status, 5	;RP0=0, select bank0
  1403  0702  1303               	bcf	status, 6	;RP1=0, select bank0
  1404  0703  00AE               	movwf	(??_main+0)+0
  1405  0704  082E               	movf	(??_main+0)+0,w
  1406  0705  00F0               	movwf	(?_uart_puts)
  1407  0706  0833               	movf	(_uart1),w
  1408  0707  120A  118A  23EC   	fcall	_uart_puts
              120A  118A         
  1409  070C  2F0D               	goto	l42
  1410                           opt subtitle "HI-TECH Software Omniscient Code Generator (Lite mode) build 49521"
  1411                           
  1412  070D                     l39:	
  1413                           opt subtitle "HI-TECH Software Omniscient Code Generator (Lite mode) build 49521"
  1414                           
  1415                           opt pagewidth 120
  1416                           
  1417  070D                     l42:	
  1418  070D  2F0D               	goto	l42
  1419                           opt subtitle "HI-TECH Software Omniscient Code Generator (Lite mode) build 49521"
  1420  070E                     l43:	
  1421                           opt subtitle "HI-TECH Software Omniscient Code Generator (Lite mode) build 49521"
  1422                           
  1423  070E                     l44:	
  1424                           opt subtitle "HI-TECH Software Omniscient Code Generator (Lite mode) build 49521"
  1425  070E  120A  118A  2800   	ljmp	start
  1426                           opt subtitle "HI-TECH Software Omniscient Code Generator (Lite mode) build 49521"
  1427                           
  1428  0711                     	__end_of_main:
  1429                           opt subtitle "HI-TECH Software Omniscient Code Generator (Lite mode) build 49521"
  1430                           
  1431                           opt pagewidth 120
  1432                           
  1433                           	opt lm
  1434                           
  1435                           	processor	16F887
  1436                           clrc	macro
  1437                           	bcf	3,0
  1438                           	endm
  1439                           clrz	macro
  1440                           	bcf	3,2
  1441                           	endm
  1442                           setc	macro
  1443                           	bsf	3,0
  1444                           	endm
  1445                           setz	macro
  1446                           	bsf	3,2
  1447                           	endm
  1448                           skipc	macro
  1449                           	btfss	3,0
  1450                           	endm
  1451                           skipz	macro
  1452                           	btfss	3,2
  1453                           	endm
  1454                           skipnc	macro
  1455                           	btfsc	3,0
  1456                           	endm
  1457                           skipnz	macro
  1458                           	btfsc	3,2
  1459                           	endm
  1460                           indf	equ	0
  1461                           indf0	equ	0
  1462                           pc	equ	2
  1463  0419                     __ptext397:	;psect for function _spi_init
  1464                           opt subtitle "HI-TECH Software Omniscient Code Generator (Lite mode) build 49521"
  1465                           
  1466                           opt pagewidth 120
  1467                           
  1468  002D                     	__size_of_spi_init	equ	__end_of_spi_init-_spi_init
  1469                           opt subtitle "HI-TECH Software Omniscient Code Generator (Lite mode) build 49521"
  1470  0419                     _spi_init:	
  1471                           opt subtitle "HI-TECH Software Omniscient Code Generator (Lite mode) build 49521"
  1472                           
  1473                           opt pagewidth 120
  1474  0419  1283               	bcf	status, 5	;RP0=0, select bank0
  1475  041A  1303               	bcf	status, 6	;RP1=0, select bank0
  1476  041B  00A0               	movwf	(spi_init@eModule)
  1477                           opt subtitle "HI-TECH Software Omniscient Code Generator (Lite mode) build 49521"
  1478                           
  1479  041C                     l1560:	
  1480                           opt subtitle "HI-TECH Software Omniscient Code Generator (Lite mode) build 49521"
  1481  041C  0820               	movf	(spi_init@eModule),w
  1482  041D  3A01               	xorlw	01h
  1483  041E  1903               	skipnz
  1484  041F  2C21               	goto	u1101
  1485  0420  2C22               	goto	u1100
  1486  0421                     u1101:
  1487  0421  2C25               	goto	l1566
  1488  0422                     u1100:
  1489                           opt subtitle "HI-TECH Software Omniscient Code Generator (Lite mode) build 49521"
  1490                           
  1491  0422                     l1562:	
  1492                           opt subtitle "HI-TECH Software Omniscient Code Generator (Lite mode) build 49521"
  1493  0422  3000               	movlw	(0)
  1494  0423  2C45               	goto	l64
  1495                           opt subtitle "HI-TECH Software Omniscient Code Generator (Lite mode) build 49521"
  1496  0424                     l1564:	
  1497  0424  2C45               	goto	l64
  1498                           opt subtitle "HI-TECH Software Omniscient Code Generator (Lite mode) build 49521"
  1499  0425                     l63:	
  1500                           opt subtitle "HI-TECH Software Omniscient Code Generator (Lite mode) build 49521"
  1501                           
  1502  0425                     l1566:	
  1503                           opt subtitle "HI-TECH Software Omniscient Code Generator (Lite mode) build 49521"
  1504  0425  1683               	bsf	status, 5	;RP0=1, select bank1
  1505  0426  1303               	bcf	status, 6	;RP1=0, select bank1
  1506  0427  0194               	clrf	(148)^080h	;volatile
  1507                           opt subtitle "HI-TECH Software Omniscient Code Generator (Lite mode) build 49521"
  1508                           
  1509  0428  1283               	bcf	status, 5	;RP0=0, select bank0
  1510  0429  1303               	bcf	status, 6	;RP1=0, select bank0
  1511  042A  0194               	clrf	(20)	;volatile
  1512                           opt subtitle "HI-TECH Software Omniscient Code Generator (Lite mode) build 49521"
  1513                           
  1514  042B                     l1568:	
  1515                           opt subtitle "HI-TECH Software Omniscient Code Generator (Lite mode) build 49521"
  1516  042B  3000               	movlw	0
  1517  042C  00F3               	movwf	(?_spi_control+3)
  1518  042D  3000               	movlw	0
  1519  042E  00F2               	movwf	(?_spi_control+2)
  1520  042F  3000               	movlw	0
  1521  0430  00F1               	movwf	(?_spi_control+1)
  1522  0431  3011               	movlw	011h
  1523  0432  00F0               	movwf	(?_spi_control)
  1524                           opt subtitle "HI-TECH Software Omniscient Code Generator (Lite mode) build 49521"
  1525  0433  3000               	movlw	0
  1526  0434  00F7               	movwf	3+(?_spi_control)+04h
  1527  0435  3000               	movlw	0
  1528  0436  00F6               	movwf	2+(?_spi_control)+04h
  1529  0437  3000               	movlw	0
  1530  0438  00F5               	movwf	1+(?_spi_control)+04h
  1531  0439  3003               	movlw	03h
  1532  043A  00F4               	movwf	0+(?_spi_control)+04h
  1533                           opt subtitle "HI-TECH Software Omniscient Code Generator (Lite mode) build 49521"
  1534  043B  0820               	movf	(spi_init@eModule),w
  1535  043C  120A  118A  2590   	fcall	_spi_control
              120A  118A         
  1536                           opt subtitle "HI-TECH Software Omniscient Code Generator (Lite mode) build 49521"
  1537                           
  1538  0441                     l1570:	
  1539                           opt subtitle "HI-TECH Software Omniscient Code Generator (Lite mode) build 49521"
  1540  0441  1283               	bcf	status, 5	;RP0=0, select bank0
  1541  0442  1303               	bcf	status, 6	;RP1=0, select bank0
  1542  0443  0820               	movf	(spi_init@eModule),w
  1543  0444  2C45               	goto	l64
  1544                           opt subtitle "HI-TECH Software Omniscient Code Generator (Lite mode) build 49521"
  1545  0445                     l1572:	
  1546                           opt subtitle "HI-TECH Software Omniscient Code Generator (Lite mode) build 49521"
  1547                           
  1548  0445                     l64:	
  1549  0445  0008               	return
  1550                           opt subtitle "HI-TECH Software Omniscient Code Generator (Lite mode) build 49521"
  1551                           
  1552  0446                     	__end_of_spi_init:
  1553                           opt subtitle "HI-TECH Software Omniscient Code Generator (Lite mode) build 49521"
  1554                           
  1555                           opt pagewidth 120
  1556                           
  1557                           	opt lm
  1558                           
  1559                           	processor	16F887
  1560                           clrc	macro
  1561                           	bcf	3,0
  1562                           	endm
  1563                           clrz	macro
  1564                           	bcf	3,2
  1565                           	endm
  1566                           setc	macro
  1567                           	bsf	3,0
  1568                           	endm
  1569                           setz	macro
  1570                           	bsf	3,2
  1571                           	endm
  1572                           skipc	macro
  1573                           	btfss	3,0
  1574                           	endm
  1575                           skipz	macro
  1576                           	btfss	3,2
  1577                           	endm
  1578                           skipnc	macro
  1579                           	btfsc	3,0
  1580                           	endm
  1581                           skipnz	macro
  1582                           	btfsc	3,2
  1583                           	endm
  1584                           indf	equ	0
  1585                           indf0	equ	0
  1586  03A1                     __ptext398:	;psect for function _uart_init
  1587                           opt subtitle "HI-TECH Software Omniscient Code Generator (Lite mode) build 49521"
  1588                           
  1589                           opt pagewidth 120
  1590                           
  1591  0016                     	__size_of_uart_init	equ	__end_of_uart_init-_uart_init
  1592                           opt subtitle "HI-TECH Software Omniscient Code Generator (Lite mode) build 49521"
  1593  03A1                     _uart_init:	
  1594                           opt subtitle "HI-TECH Software Omniscient Code Generator (Lite mode) build 49521"
  1595                           
  1596                           opt pagewidth 120
  1597                           
  1598  03A1  00F0               	movwf	(uart_init@eUART)
  1599                           opt subtitle "HI-TECH Software Omniscient Code Generator (Lite mode) build 49521"
  1600  03A2                     l1354:	
  1601                           opt subtitle "HI-TECH Software Omniscient Code Generator (Lite mode) build 49521"
  1602  03A2  0870               	movf	(uart_init@eUART),w
  1603  03A3  3A01               	xorlw	01h
  1604  03A4  1903               	skipnz
  1605  03A5  2BA7               	goto	u791
  1606  03A6  2BA8               	goto	u790
  1607  03A7                     u791:
  1608  03A7  2BAB               	goto	l1360
  1609  03A8                     u790:
  1610                           opt subtitle "HI-TECH Software Omniscient Code Generator (Lite mode) build 49521"
  1611                           
  1612  03A8                     l1356:	
  1613                           opt subtitle "HI-TECH Software Omniscient Code Generator (Lite mode) build 49521"
  1614  03A8  3000               	movlw	(0)
  1615  03A9  2BB6               	goto	l160
  1616                           opt subtitle "HI-TECH Software Omniscient Code Generator (Lite mode) build 49521"
  1617  03AA                     l1358:	
  1618  03AA  2BB6               	goto	l160
  1619                           opt subtitle "HI-TECH Software Omniscient Code Generator (Lite mode) build 49521"
  1620  03AB                     l159:	
  1621                           opt subtitle "HI-TECH Software Omniscient Code Generator (Lite mode) build 49521"
  1622                           
  1623  03AB                     l1360:	
  1624                           opt subtitle "HI-TECH Software Omniscient Code Generator (Lite mode) build 49521"
  1625  03AB  1683               	bsf	status, 5	;RP0=1, select bank1
  1626  03AC  1303               	bcf	status, 6	;RP1=0, select bank1
  1627  03AD  0198               	clrf	(152)^080h	;volatile
  1628                           opt subtitle "HI-TECH Software Omniscient Code Generator (Lite mode) build 49521"
  1629                           
  1630  03AE  1283               	bcf	status, 5	;RP0=0, select bank0
  1631  03AF  1303               	bcf	status, 6	;RP1=0, select bank0
  1632  03B0  0198               	clrf	(24)	;volatile
  1633                           opt subtitle "HI-TECH Software Omniscient Code Generator (Lite mode) build 49521"
  1634                           
  1635  03B1  1683               	bsf	status, 5	;RP0=1, select bank1
  1636  03B2  1303               	bcf	status, 6	;RP1=0, select bank1
  1637  03B3  0199               	clrf	(153)^080h	;volatile
  1638                           opt subtitle "HI-TECH Software Omniscient Code Generator (Lite mode) build 49521"
  1639                           
  1640  03B4                     l1362:	
  1641                           opt subtitle "HI-TECH Software Omniscient Code Generator (Lite mode) build 49521"
  1642  03B4  0870               	movf	(uart_init@eUART),w
  1643  03B5  2BB6               	goto	l160
  1644                           opt subtitle "HI-TECH Software Omniscient Code Generator (Lite mode) build 49521"
  1645  03B6                     l1364:	
  1646                           opt subtitle "HI-TECH Software Omniscient Code Generator (Lite mode) build 49521"
  1647                           
  1648  03B6                     l160:	
  1649  03B6  0008               	return
  1650                           opt subtitle "HI-TECH Software Omniscient Code Generator (Lite mode) build 49521"
  1651                           
  1652  03B7                     	__end_of_uart_init:
  1653                           opt subtitle "HI-TECH Software Omniscient Code Generator (Lite mode) build 49521"
  1654                           
  1655                           opt pagewidth 120
  1656                           
  1657                           	opt lm
  1658                           
  1659                           	processor	16F887
  1660                           clrc	macro
  1661                           	bcf	3,0
  1662                           	endm
  1663                           clrz	macro
  1664                           	bcf	3,2
  1665                           	endm
  1666                           setc	macro
  1667                           	bsf	3,0
  1668                           	endm
  1669                           setz	macro
  1670                           	bsf	3,2
  1671                           	endm
  1672                           skipc	macro
  1673                           	btfss	3,0
  1674                           	endm
  1675                           skipz	macro
  1676                           	btfss	3,2
  1677                           	endm
  1678                           skipnc	macro
  1679                           	btfsc	3,0
  1680                           	endm
  1681                           skipnz	macro
  1682                           	btfsc	3,2
  1683                           	endm
  1684                           indf	equ	0
  1685                           indf0	equ	0
  1686                           pc	equ	2
  1687                           pcl	equ	2
  1688                           status	equ	3
  1689  04D6                     __ptext399:	;psect for function _uart_control
  1690                           opt subtitle "HI-TECH Software Omniscient Code Generator (Lite mode) build 49521"
  1691                           
  1692                           opt pagewidth 120
  1693                           
  1694  004D                     	__size_of_uart_control	equ	__end_of_uart_control-_uart_control
  1695                           opt subtitle "HI-TECH Software Omniscient Code Generator (Lite mode) build 49521"
  1696  04D6                     _uart_control:	
  1697                           opt subtitle "HI-TECH Software Omniscient Code Generator (Lite mode) build 49521"
  1698                           
  1699                           opt pagewidth 120
  1700                           
  1701  04D6  1283               	bcf	status, 5	;RP0=0, select bank0
  1702  04D7  1303               	bcf	status, 6	;RP1=0, select bank0
  1703  04D8  00AC               	movwf	(uart_control@uartd)
  1704                           opt subtitle "HI-TECH Software Omniscient Code Generator (Lite mode) build 49521"
  1705  04D9                     l1574:	
  1706                           opt subtitle "HI-TECH Software Omniscient Code Generator (Lite mode) build 49521"
  1707  04D9  082C               	movf	(uart_control@uartd),w
  1708  04DA  3A01               	xorlw	01h
  1709  04DB  1903               	skipnz
  1710  04DC  2CDE               	goto	u1111
  1711  04DD  2CDF               	goto	u1110
  1712  04DE                     u1111:
  1713  04DE  2CE1               	goto	l163
  1714  04DF                     u1110:
  1715  04DF  2D22               	goto	l164
  1716                           opt subtitle "HI-TECH Software Omniscient Code Generator (Lite mode) build 49521"
  1717                           
  1718  04E0                     l1576:	
  1719                           opt subtitle "HI-TECH Software Omniscient Code Generator (Lite mode) build 49521"
  1720                           
  1721  04E0  2D22               	goto	l164
  1722                           opt subtitle "HI-TECH Software Omniscient Code Generator (Lite mode) build 49521"
  1723  04E1                     l163:	
  1724                           opt subtitle "HI-TECH Software Omniscient Code Generator (Lite mode) build 49521"
  1725                           
  1726  04E1  1683               	bsf	status, 5	;RP0=1, select bank1
  1727  04E2  1303               	bcf	status, 6	;RP1=0, select bank1
  1728  04E3  1518               	bsf	(152)^080h,2	;volatile
  1729                           opt subtitle "HI-TECH Software Omniscient Code Generator (Lite mode) build 49521"
  1730                           
  1731  04E4  1218               	bcf	(152)^080h,4	;volatile
  1732                           opt subtitle "HI-TECH Software Omniscient Code Generator (Lite mode) build 49521"
  1733                           
  1734  04E5  2CED               	goto	l165
  1735                           opt subtitle "HI-TECH Software Omniscient Code Generator (Lite mode) build 49521"
  1736                           
  1737  04E6                     l1578:	
  1738                           opt subtitle "HI-TECH Software Omniscient Code Generator (Lite mode) build 49521"
  1739  04E6  1283               	bcf	status, 5	;RP0=0, select bank0
  1740  04E7  1303               	bcf	status, 6	;RP1=0, select bank0
  1741  04E8  1718               	bsf	(24),6	;volatile
  1742                           opt subtitle "HI-TECH Software Omniscient Code Generator (Lite mode) build 49521"
  1743                           
  1744  04E9  1683               	bsf	status, 5	;RP0=1, select bank1
  1745  04EA  1303               	bcf	status, 6	;RP1=0, select bank1
  1746  04EB  1718               	bsf	(152)^080h,6	;volatile
  1747                           opt subtitle "HI-TECH Software Omniscient Code Generator (Lite mode) build 49521"
  1748                           
  1749  04EC  2CF4               	goto	l1580
  1750                           opt subtitle "HI-TECH Software Omniscient Code Generator (Lite mode) build 49521"
  1751  04ED                     l165:	
  1752                           opt subtitle "HI-TECH Software Omniscient Code Generator (Lite mode) build 49521"
  1753                           
  1754  04ED  1283               	bcf	status, 5	;RP0=0, select bank0
  1755  04EE  1303               	bcf	status, 6	;RP1=0, select bank0
  1756  04EF  1318               	bcf	(24),6	;volatile
  1757                           opt subtitle "HI-TECH Software Omniscient Code Generator (Lite mode) build 49521"
  1758                           
  1759  04F0  1683               	bsf	status, 5	;RP0=1, select bank1
  1760  04F1  1303               	bcf	status, 6	;RP1=0, select bank1
  1761  04F2  1318               	bcf	(152)^080h,6	;volatile
  1762  04F3  2CF4               	goto	l1580
  1763                           opt subtitle "HI-TECH Software Omniscient Code Generator (Lite mode) build 49521"
  1764                           
  1765  04F4                     l166:	
  1766                           opt subtitle "HI-TECH Software Omniscient Code Generator (Lite mode) build 49521"
  1767                           
  1768  04F4                     l1580:	
  1769                           opt subtitle "HI-TECH Software Omniscient Code Generator (Lite mode) build 49521"
  1770                           
  1771  04F4  1283               	bcf	status, 5	;RP0=0, select bank0
  1772  04F5  1303               	bcf	status, 6	;RP1=0, select bank0
  1773  04F6  0824               	movf	(uart_control@arg),w
  1774  04F7  00A8               	movwf	(??_uart_control+0)+0
  1775  04F8  0825               	movf	(uart_control@arg+1),w
  1776  04F9  00A9               	movwf	((??_uart_control+0)+0+1)
  1777  04FA  0826               	movf	(uart_control@arg+2),w
  1778  04FB  00AA               	movwf	((??_uart_control+0)+0+2)
  1779  04FC  0827               	movf	(uart_control@arg+3),w
  1780  04FD  00AB               	movwf	((??_uart_control+0)+0+3)
  1781  04FE  3002               	movlw	02h
  1782  04FF                     u1125:
  1783  04FF  1003               	clrc
  1784  0500  0DA8               	rlf	(??_uart_control+0)+0,f
  1785  0501  0DA9               	rlf	(??_uart_control+0)+1,f
  1786  0502  0DAA               	rlf	(??_uart_control+0)+2,f
  1787  0503  0DAB               	rlf	(??_uart_control+0)+3,f
  1788  0504                     u1120:
  1789  0504  3EFF               	addlw	-1
  1790  0505  1D03               	skipz
  1791  0506  2CFF               	goto	u1125
  1792  0507  082B               	movf	3+(??_uart_control+0)+0,w
  1793  0508  00F3               	movwf	(?___lldiv+3)
  1794  0509  082A               	movf	2+(??_uart_control+0)+0,w
  1795  050A  00F2               	movwf	(?___lldiv+2)
  1796  050B  0829               	movf	1+(??_uart_control+0)+0,w
  1797  050C  00F1               	movwf	(?___lldiv+1)
  1798  050D  0828               	movf	0+(??_uart_control+0)+0,w
  1799  050E  00F0               	movwf	(?___lldiv)
  1800                           opt subtitle "HI-TECH Software Omniscient Code Generator (Lite mode) build 49521"
  1801  050F  3000               	movlw	0
  1802  0510  00F7               	movwf	3+(?___lldiv)+04h
  1803  0511  300F               	movlw	0Fh
  1804  0512  00F6               	movwf	2+(?___lldiv)+04h
  1805  0513  3042               	movlw	042h
  1806  0514  00F5               	movwf	1+(?___lldiv)+04h
  1807  0515  3040               	movlw	040h
  1808  0516  00F4               	movwf	0+(?___lldiv)+04h
  1809                           opt subtitle "HI-TECH Software Omniscient Code Generator (Lite mode) build 49521"
  1810  0517  120A  118A  2523   	fcall	___lldiv
              120A  118A         
  1811  051C  0870               	movf	0+(((0+(?___lldiv)))),w
  1812  051D  3EFF               	addlw	0FFh
  1813  051E  1683               	bsf	status, 5	;RP0=1, select bank1
  1814  051F  1303               	bcf	status, 6	;RP1=0, select bank1
  1815  0520  0099               	movwf	(153)^080h	;volatile
  1816  0521  2D22               	goto	l164
  1817                           opt subtitle "HI-TECH Software Omniscient Code Generator (Lite mode) build 49521"
  1818                           
  1819  0522                     l1582:	
  1820                           opt subtitle "HI-TECH Software Omniscient Code Generator (Lite mode) build 49521"
  1821                           
  1822                           opt pagewidth 120
  1823                           
  1824  0522                     l164:	
  1825  0522  0008               	return
  1826                           opt subtitle "HI-TECH Software Omniscient Code Generator (Lite mode) build 49521"
  1827                           
  1828  0523                     	__end_of_uart_control:
  1829                           opt subtitle "HI-TECH Software Omniscient Code Generator (Lite mode) build 49521"
  1830                           
  1831                           opt pagewidth 120
  1832                           
  1833                           	opt lm
  1834                           
  1835                           	processor	16F887
  1836                           clrc	macro
  1837                           	bcf	3,0
  1838                           	endm
  1839                           clrz	macro
  1840                           	bcf	3,2
  1841                           	endm
  1842                           setc	macro
  1843                           	bsf	3,0
  1844                           	endm
  1845                           setz	macro
  1846                           	bsf	3,2
  1847                           	endm
  1848                           skipc	macro
  1849                           	btfss	3,0
  1850                           	endm
  1851                           skipz	macro
  1852                           	btfss	3,2
  1853                           	endm
  1854                           skipnc	macro
  1855                           	btfsc	3,0
  1856                           	endm
  1857                           skipnz	macro
  1858                           	btfsc	3,2
  1859                           	endm
  1860                           indf	equ	0
  1861                           indf0	equ	0
  1862                           pc	equ	2
  1863                           pcl	equ	2
  1864                           status	equ	3
  1865                           fsr	equ	4
  1866  0590                     __ptext400:	;psect for function _spi_control
  1867                           opt subtitle "HI-TECH Software Omniscient Code Generator (Lite mode) build 49521"
  1868                           
  1869                           opt pagewidth 120
  1870                           
  1871  00B3                     	__size_of_spi_control	equ	__end_of_spi_control-_spi_control
  1872                           opt subtitle "HI-TECH Software Omniscient Code Generator (Lite mode) build 49521"
  1873  0590                     _spi_control:	
  1874                           opt subtitle "HI-TECH Software Omniscient Code Generator (Lite mode) build 49521"
  1875                           
  1876                           opt pagewidth 120
  1877                           
  1878  0590  00FC               	movwf	(spi_control@spid)
  1879                           opt subtitle "HI-TECH Software Omniscient Code Generator (Lite mode) build 49521"
  1880  0591                     l1366:	
  1881                           opt subtitle "HI-TECH Software Omniscient Code Generator (Lite mode) build 49521"
  1882  0591  087C               	movf	(spi_control@spid),w
  1883  0592  3A01               	xorlw	01h
  1884  0593  1903               	skipnz
  1885  0594  2D96               	goto	u801
  1886  0595  2D97               	goto	u800
  1887  0596                     u801:
  1888  0596  2D99               	goto	l1370
  1889  0597                     u800:
  1890  0597  2E42               	goto	l68
  1891                           opt subtitle "HI-TECH Software Omniscient Code Generator (Lite mode) build 49521"
  1892                           
  1893  0598                     l1368:	
  1894                           opt subtitle "HI-TECH Software Omniscient Code Generator (Lite mode) build 49521"
  1895                           
  1896  0598  2E42               	goto	l68
  1897                           opt subtitle "HI-TECH Software Omniscient Code Generator (Lite mode) build 49521"
  1898  0599                     l67:	
  1899                           opt subtitle "HI-TECH Software Omniscient Code Generator (Lite mode) build 49521"
  1900                           
  1901  0599                     l1370:	
  1902                           opt subtitle "HI-TECH Software Omniscient Code Generator (Lite mode) build 49521"
  1903  0599  0874               	movf	(spi_control@arg),w
  1904  059A  390F               	andlw	0Fh
  1905  059B  00F8               	movwf	(??_spi_control+0)+0
  1906  059C  0878               	movf	(??_spi_control+0)+0,w
  1907  059D  00FD               	movwf	(spi_control@speed)
  1908                           opt subtitle "HI-TECH Software Omniscient Code Generator (Lite mode) build 49521"
  1909                           
  1910  059E  2DD7               	goto	l1390
  1911                           opt subtitle "HI-TECH Software Omniscient Code Generator (Lite mode) build 49521"
  1912                           
  1913                           opt pagewidth 120
  1914  059F                     l70:	
  1915                           opt subtitle "HI-TECH Software Omniscient Code Generator (Lite mode) build 49521"
  1916                           
  1917  059F                     l1372:	
  1918                           opt subtitle "HI-TECH Software Omniscient Code Generator (Lite mode) build 49521"
  1919  059F  087D               	movf	(spi_control@speed),w
  1920  05A0  3A03               	xorlw	03h
  1921  05A1  1D03               	skipz
  1922  05A2  2DA4               	goto	u811
  1923  05A3  2DA5               	goto	u810
  1924  05A4                     u811:
  1925  05A4  2DAA               	goto	l1376
  1926  05A5                     u810:
  1927                           opt subtitle "HI-TECH Software Omniscient Code Generator (Lite mode) build 49521"
  1928                           
  1929  05A5                     l1374:	
  1930                           opt subtitle "HI-TECH Software Omniscient Code Generator (Lite mode) build 49521"
  1931  05A5  30F0               	movlw	((0 & ((1<<4)-1))<<0)|not (((1<<4)-1)<<0)
  1932  05A6  1283               	bcf	status, 5	;RP0=0, select bank0
  1933  05A7  1303               	bcf	status, 6	;RP1=0, select bank0
  1934  05A8  0594               	andwf	(20),f	;volatile
  1935  05A9  2E19               	goto	l1394
  1936                           opt subtitle "HI-TECH Software Omniscient Code Generator (Lite mode) build 49521"
  1937                           
  1938  05AA                     l71:	
  1939                           opt subtitle "HI-TECH Software Omniscient Code Generator (Lite mode) build 49521"
  1940  05AA                     l1376:	
  1941                           opt subtitle "HI-TECH Software Omniscient Code Generator (Lite mode) build 49521"
  1942  05AA  087D               	movf	(spi_control@speed),w
  1943  05AB  3A05               	xorlw	05h
  1944  05AC  1D03               	skipz
  1945  05AD  2DAF               	goto	u821
  1946  05AE  2DB0               	goto	u820
  1947  05AF                     u821:
  1948  05AF  2DB7               	goto	l1380
  1949  05B0                     u820:
  1950                           opt subtitle "HI-TECH Software Omniscient Code Generator (Lite mode) build 49521"
  1951                           
  1952  05B0                     l1378:	
  1953                           opt subtitle "HI-TECH Software Omniscient Code Generator (Lite mode) build 49521"
  1954  05B0  1283               	bcf	status, 5	;RP0=0, select bank0
  1955  05B1  1303               	bcf	status, 6	;RP1=0, select bank0
  1956  05B2  0814               	movf	(20),w	;volatile
  1957  05B3  39F0               	andlw	not (((1<<4)-1)<<0)
  1958  05B4  3801               	iorlw	(01h & ((1<<4)-1))<<0
  1959  05B5  0094               	movwf	(20)	;volatile
  1960  05B6  2E19               	goto	l1394
  1961                           opt subtitle "HI-TECH Software Omniscient Code Generator (Lite mode) build 49521"
  1962                           
  1963  05B7                     l73:	
  1964                           opt subtitle "HI-TECH Software Omniscient Code Generator (Lite mode) build 49521"
  1965  05B7                     l1380:	
  1966                           opt subtitle "HI-TECH Software Omniscient Code Generator (Lite mode) build 49521"
  1967  05B7  087D               	movf	(spi_control@speed),w
  1968  05B8  3A07               	xorlw	07h
  1969  05B9  1D03               	skipz
  1970  05BA  2DBC               	goto	u831
  1971  05BB  2DBD               	goto	u830
  1972  05BC                     u831:
  1973  05BC  2DC4               	goto	l1384
  1974  05BD                     u830:
  1975                           opt subtitle "HI-TECH Software Omniscient Code Generator (Lite mode) build 49521"
  1976                           
  1977  05BD                     l1382:	
  1978                           opt subtitle "HI-TECH Software Omniscient Code Generator (Lite mode) build 49521"
  1979  05BD  1283               	bcf	status, 5	;RP0=0, select bank0
  1980  05BE  1303               	bcf	status, 6	;RP1=0, select bank0
  1981  05BF  0814               	movf	(20),w	;volatile
  1982  05C0  39F0               	andlw	not (((1<<4)-1)<<0)
  1983  05C1  3802               	iorlw	(02h & ((1<<4)-1))<<0
  1984  05C2  0094               	movwf	(20)	;volatile
  1985  05C3  2E19               	goto	l1394
  1986                           opt subtitle "HI-TECH Software Omniscient Code Generator (Lite mode) build 49521"
  1987                           
  1988  05C4                     l75:	
  1989                           opt subtitle "HI-TECH Software Omniscient Code Generator (Lite mode) build 49521"
  1990                           
  1991  05C4                     l1384:	
  1992                           opt subtitle "HI-TECH Software Omniscient Code Generator (Lite mode) build 49521"
  1993                           
  1994  05C4  1283               	bcf	status, 5	;RP0=0, select bank0
  1995  05C5  1303               	bcf	status, 6	;RP1=0, select bank0
  1996  05C6  0814               	movf	(20),w	;volatile
  1997  05C7  39F0               	andlw	not (((1<<4)-1)<<0)
  1998  05C8  3802               	iorlw	(02h & ((1<<4)-1))<<0
  1999  05C9  0094               	movwf	(20)	;volatile
  2000  05CA  2E19               	goto	l1394
  2001                           opt subtitle "HI-TECH Software Omniscient Code Generator (Lite mode) build 49521"
  2002  05CB                     l76:	
  2003  05CB  2E19               	goto	l1394
  2004                           opt subtitle "HI-TECH Software Omniscient Code Generator (Lite mode) build 49521"
  2005  05CC                     l74:	
  2006  05CC  2E19               	goto	l1394
  2007                           opt subtitle "HI-TECH Software Omniscient Code Generator (Lite mode) build 49521"
  2008  05CD                     l72:	
  2009                           opt subtitle "HI-TECH Software Omniscient Code Generator (Lite mode) build 49521"
  2010                           
  2011  05CD  2E19               	goto	l1394
  2012                           opt subtitle "HI-TECH Software Omniscient Code Generator (Lite mode) build 49521"
  2013                           
  2014                           opt pagewidth 120
  2015  05CE                     l78:	
  2016                           opt subtitle "HI-TECH Software Omniscient Code Generator (Lite mode) build 49521"
  2017                           
  2018  05CE                     l1386:	
  2019                           opt subtitle "HI-TECH Software Omniscient Code Generator (Lite mode) build 49521"
  2020  05CE  1283               	bcf	status, 5	;RP0=0, select bank0
  2021  05CF  1303               	bcf	status, 6	;RP1=0, select bank0
  2022  05D0  0814               	movf	(20),w	;volatile
  2023  05D1  39F0               	andlw	not (((1<<4)-1)<<0)
  2024  05D2  3804               	iorlw	(04h & ((1<<4)-1))<<0
  2025  05D3  0094               	movwf	(20)	;volatile
  2026                           opt subtitle "HI-TECH Software Omniscient Code Generator (Lite mode) build 49521"
  2027                           
  2028  05D4  2E19               	goto	l1394
  2029                           opt subtitle "HI-TECH Software Omniscient Code Generator (Lite mode) build 49521"
  2030                           
  2031                           opt pagewidth 120
  2032  05D5                     l79:	
  2033                           opt subtitle "HI-TECH Software Omniscient Code Generator (Lite mode) build 49521"
  2034                           
  2035                           opt pagewidth 120
  2036  05D5  2E42               	goto	l68
  2037                           opt subtitle "HI-TECH Software Omniscient Code Generator (Lite mode) build 49521"
  2038                           
  2039  05D6                     l1388:	
  2040                           opt subtitle "HI-TECH Software Omniscient Code Generator (Lite mode) build 49521"
  2041  05D6  2E19               	goto	l1394
  2042                           opt subtitle "HI-TECH Software Omniscient Code Generator (Lite mode) build 49521"
  2043                           
  2044  05D7                     l69:	
  2045                           opt subtitle "HI-TECH Software Omniscient Code Generator (Lite mode) build 49521"
  2046  05D7                     l1390:	
  2047  05D7  300F               	movlw	0Fh
  2048  05D8  0570               	andwf	(spi_control@ctrl),w
  2049  05D9  00F8               	movwf	(??_spi_control+0)+0
  2050  05DA  3000               	movlw	0
  2051  05DB  0571               	andwf	(spi_control@ctrl+1),w
  2052  05DC  00F9               	movwf	((??_spi_control+0)+0+1)
  2053  05DD  3000               	movlw	0
  2054  05DE  0572               	andwf	(spi_control@ctrl+2),w
  2055  05DF  00FA               	movwf	((??_spi_control+0)+0+2)
  2056  05E0  3000               	movlw	0
  2057  05E1  0573               	andwf	(spi_control@ctrl+3),w
  2058  05E2  00FB               	movwf	((??_spi_control+0)+0+3)
  2059                           opt subtitle "HI-TECH Software Omniscient Code Generator (Lite mode) build 49521"
  2060                           
  2061                           opt pagewidth 120
  2062                           
  2063                           	opt lm
  2064                           
  2065                           	processor	16F887
  2066                           clrc	macro
  2067                           	bcf	3,0
  2068                           	endm
  2069                           clrz	macro
  2070                           	bcf	3,2
  2071                           	endm
  2072  05E3  087B               	movf 3+(??_spi_control+0)+0,w
  2073                           opt subtitle "HI-TECH Software Omniscient Code Generator (Lite mode) build 49521"
  2074  05E4  3A00               	xorlw	0^0	; case 0
  2075  05E5  1903               	skipnz
  2076  05E6  2DF5               	goto	l1824
  2077  05E7  2E42               	goto	l68
  2078                           opt subtitle "HI-TECH Software Omniscient Code Generator (Lite mode) build 49521"
  2079                           
  2080  05E8                     l1822:	
  2081                           opt subtitle "HI-TECH Software Omniscient Code Generator (Lite mode) build 49521"
  2082                           
  2083                           opt pagewidth 120
  2084                           
  2085                           	opt lm
  2086                           
  2087                           	processor	16F887
  2088                           clrc	macro
  2089                           	bcf	3,0
  2090                           	endm
  2091                           clrz	macro
  2092                           	bcf	3,2
  2093                           	endm
  2094  05E8  0879               	movf 1+(??_spi_control+0)+0,w
  2095                           opt subtitle "HI-TECH Software Omniscient Code Generator (Lite mode) build 49521"
  2096  05E9  3A00               	xorlw	0^0	; case 0
  2097  05EA  1903               	skipnz
  2098  05EB  2DED               	goto	l1826
  2099  05EC  2E42               	goto	l68
  2100                           opt subtitle "HI-TECH Software Omniscient Code Generator (Lite mode) build 49521"
  2101                           
  2102  05ED                     l1826:	
  2103                           opt subtitle "HI-TECH Software Omniscient Code Generator (Lite mode) build 49521"
  2104                           
  2105                           opt pagewidth 120
  2106                           
  2107                           	opt lm
  2108                           
  2109                           	processor	16F887
  2110                           clrc	macro
  2111                           	bcf	3,0
  2112  05ED  0878               	movf 0+(??_spi_control+0)+0,w
  2113                           opt subtitle "HI-TECH Software Omniscient Code Generator (Lite mode) build 49521"
  2114  05EE  3A01               	xorlw	1^0	; case 1
  2115  05EF  1903               	skipnz
  2116  05F0  2D9F               	goto	l1372
  2117  05F1  3A03               	xorlw	2^1	; case 2
  2118  05F2  1903               	skipnz
  2119  05F3  2DCE               	goto	l1386
  2120  05F4  2E42               	goto	l68
  2121                           opt subtitle "HI-TECH Software Omniscient Code Generator (Lite mode) build 49521"
  2122                           
  2123  05F5                     l1824:	
  2124                           opt subtitle "HI-TECH Software Omniscient Code Generator (Lite mode) build 49521"
  2125                           
  2126                           opt pagewidth 120
  2127                           
  2128                           	opt lm
  2129                           
  2130                           	processor	16F887
  2131                           clrc	macro
  2132                           	bcf	3,0
  2133                           	endm
  2134                           clrz	macro
  2135                           	bcf	3,2
  2136  05F5  087A               	movf 2+(??_spi_control+0)+0,w
  2137                           opt subtitle "HI-TECH Software Omniscient Code Generator (Lite mode) build 49521"
  2138  05F6  3A00               	xorlw	0^0	; case 0
  2139  05F7  1903               	skipnz
  2140  05F8  2DE8               	goto	l1822
  2141  05F9  2E42               	goto	l68
  2142                           opt subtitle "HI-TECH Software Omniscient Code Generator (Lite mode) build 49521"
  2143                           
  2144                           opt pagewidth 120
  2145                           
  2146  05FA                     l77:	
  2147                           opt subtitle "HI-TECH Software Omniscient Code Generator (Lite mode) build 49521"
  2148                           
  2149  05FA  2E19               	goto	l1394
  2150                           opt subtitle "HI-TECH Software Omniscient Code Generator (Lite mode) build 49521"
  2151                           
  2152                           opt pagewidth 120
  2153  05FB                     l81:	
  2154                           opt subtitle "HI-TECH Software Omniscient Code Generator (Lite mode) build 49521"
  2155                           
  2156  05FB  1283               	bcf	status, 5	;RP0=0, select bank0
  2157  05FC  1303               	bcf	status, 6	;RP1=0, select bank0
  2158  05FD  1214               	bcf	(20),4	;volatile
  2159                           opt subtitle "HI-TECH Software Omniscient Code Generator (Lite mode) build 49521"
  2160                           
  2161  05FE  1683               	bsf	status, 5	;RP0=1, select bank1
  2162  05FF  1303               	bcf	status, 6	;RP1=0, select bank1
  2163  0600  1314               	bcf	(148)^080h,6	;volatile
  2164                           opt subtitle "HI-TECH Software Omniscient Code Generator (Lite mode) build 49521"
  2165                           
  2166  0601  2E42               	goto	l68
  2167                           opt subtitle "HI-TECH Software Omniscient Code Generator (Lite mode) build 49521"
  2168                           
  2169                           opt pagewidth 120
  2170  0602                     l83:	
  2171                           opt subtitle "HI-TECH Software Omniscient Code Generator (Lite mode) build 49521"
  2172                           
  2173  0602  1283               	bcf	status, 5	;RP0=0, select bank0
  2174  0603  1303               	bcf	status, 6	;RP1=0, select bank0
  2175  0604  1214               	bcf	(20),4	;volatile
  2176                           opt subtitle "HI-TECH Software Omniscient Code Generator (Lite mode) build 49521"
  2177                           
  2178  0605  1683               	bsf	status, 5	;RP0=1, select bank1
  2179  0606  1303               	bcf	status, 6	;RP1=0, select bank1
  2180  0607  1714               	bsf	(148)^080h,6	;volatile
  2181                           opt subtitle "HI-TECH Software Omniscient Code Generator (Lite mode) build 49521"
  2182                           
  2183  0608  2E42               	goto	l68
  2184                           opt subtitle "HI-TECH Software Omniscient Code Generator (Lite mode) build 49521"
  2185                           
  2186                           opt pagewidth 120
  2187  0609                     l84:	
  2188                           opt subtitle "HI-TECH Software Omniscient Code Generator (Lite mode) build 49521"
  2189                           
  2190  0609  1283               	bcf	status, 5	;RP0=0, select bank0
  2191  060A  1303               	bcf	status, 6	;RP1=0, select bank0
  2192  060B  1614               	bsf	(20),4	;volatile
  2193                           opt subtitle "HI-TECH Software Omniscient Code Generator (Lite mode) build 49521"
  2194                           
  2195  060C  1683               	bsf	status, 5	;RP0=1, select bank1
  2196  060D  1303               	bcf	status, 6	;RP1=0, select bank1
  2197  060E  1314               	bcf	(148)^080h,6	;volatile
  2198                           opt subtitle "HI-TECH Software Omniscient Code Generator (Lite mode) build 49521"
  2199                           
  2200  060F  2E42               	goto	l68
  2201                           opt subtitle "HI-TECH Software Omniscient Code Generator (Lite mode) build 49521"
  2202                           
  2203                           opt pagewidth 120
  2204  0610                     l85:	
  2205                           opt subtitle "HI-TECH Software Omniscient Code Generator (Lite mode) build 49521"
  2206                           
  2207  0610  1283               	bcf	status, 5	;RP0=0, select bank0
  2208  0611  1303               	bcf	status, 6	;RP1=0, select bank0
  2209  0612  1614               	bsf	(20),4	;volatile
  2210                           opt subtitle "HI-TECH Software Omniscient Code Generator (Lite mode) build 49521"
  2211                           
  2212  0613  1683               	bsf	status, 5	;RP0=1, select bank1
  2213  0614  1303               	bcf	status, 6	;RP1=0, select bank1
  2214  0615  1714               	bsf	(148)^080h,6	;volatile
  2215                           opt subtitle "HI-TECH Software Omniscient Code Generator (Lite mode) build 49521"
  2216                           
  2217  0616  2E42               	goto	l68
  2218                           opt subtitle "HI-TECH Software Omniscient Code Generator (Lite mode) build 49521"
  2219                           
  2220                           opt pagewidth 120
  2221  0617                     l86:	
  2222                           opt subtitle "HI-TECH Software Omniscient Code Generator (Lite mode) build 49521"
  2223                           
  2224                           opt pagewidth 120
  2225  0617  2E42               	goto	l68
  2226                           opt subtitle "HI-TECH Software Omniscient Code Generator (Lite mode) build 49521"
  2227                           
  2228  0618                     l1392:	
  2229                           opt subtitle "HI-TECH Software Omniscient Code Generator (Lite mode) build 49521"
  2230  0618  2E42               	goto	l68
  2231                           opt subtitle "HI-TECH Software Omniscient Code Generator (Lite mode) build 49521"
  2232                           
  2233  0619                     l80:	
  2234                           opt subtitle "HI-TECH Software Omniscient Code Generator (Lite mode) build 49521"
  2235  0619                     l1394:	
  2236  0619  30F0               	movlw	0F0h
  2237  061A  0570               	andwf	(spi_control@ctrl),w
  2238  061B  00F8               	movwf	(??_spi_control+0)+0
  2239  061C  3000               	movlw	0
  2240  061D  0571               	andwf	(spi_control@ctrl+1),w
  2241  061E  00F9               	movwf	((??_spi_control+0)+0+1)
  2242  061F  3000               	movlw	0
  2243  0620  0572               	andwf	(spi_control@ctrl+2),w
  2244  0621  00FA               	movwf	((??_spi_control+0)+0+2)
  2245  0622  3000               	movlw	0
  2246  0623  0573               	andwf	(spi_control@ctrl+3),w
  2247  0624  00FB               	movwf	((??_spi_control+0)+0+3)
  2248                           opt subtitle "HI-TECH Software Omniscient Code Generator (Lite mode) build 49521"
  2249                           
  2250                           opt pagewidth 120
  2251                           
  2252                           	opt lm
  2253                           
  2254                           	processor	16F887
  2255                           clrc	macro
  2256                           	bcf	3,0
  2257                           	endm
  2258                           clrz	macro
  2259                           	bcf	3,2
  2260                           	endm
  2261  0625  087B               	movf 3+(??_spi_control+0)+0,w
  2262                           opt subtitle "HI-TECH Software Omniscient Code Generator (Lite mode) build 49521"
  2263  0626  3A00               	xorlw	0^0	; case 0
  2264  0627  1903               	skipnz
  2265  0628  2E3D               	goto	l1830
  2266  0629  2E42               	goto	l68
  2267                           opt subtitle "HI-TECH Software Omniscient Code Generator (Lite mode) build 49521"
  2268                           
  2269  062A                     l1828:	
  2270                           opt subtitle "HI-TECH Software Omniscient Code Generator (Lite mode) build 49521"
  2271                           
  2272                           opt pagewidth 120
  2273                           
  2274                           	opt lm
  2275                           
  2276                           	processor	16F887
  2277                           clrc	macro
  2278                           	bcf	3,0
  2279                           	endm
  2280                           clrz	macro
  2281                           	bcf	3,2
  2282                           	endm
  2283  062A  0879               	movf 1+(??_spi_control+0)+0,w
  2284                           opt subtitle "HI-TECH Software Omniscient Code Generator (Lite mode) build 49521"
  2285  062B  3A00               	xorlw	0^0	; case 0
  2286  062C  1903               	skipnz
  2287  062D  2E2F               	goto	l1832
  2288  062E  2E42               	goto	l68
  2289                           opt subtitle "HI-TECH Software Omniscient Code Generator (Lite mode) build 49521"
  2290                           
  2291  062F                     l1832:	
  2292                           opt subtitle "HI-TECH Software Omniscient Code Generator (Lite mode) build 49521"
  2293                           
  2294                           opt pagewidth 120
  2295                           
  2296                           	opt lm
  2297                           
  2298                           	processor	16F887
  2299                           clrc	macro
  2300                           	bcf	3,0
  2301  062F  0878               	movf 0+(??_spi_control+0)+0,w
  2302                           opt subtitle "HI-TECH Software Omniscient Code Generator (Lite mode) build 49521"
  2303  0630  3A10               	xorlw	16^0	; case 16
  2304  0631  1903               	skipnz
  2305  0632  2DFB               	goto	l81
  2306  0633  3A30               	xorlw	32^16	; case 32
  2307  0634  1903               	skipnz
  2308  0635  2E02               	goto	l83
  2309  0636  3A10               	xorlw	48^32	; case 48
  2310  0637  1903               	skipnz
  2311  0638  2E09               	goto	l84
  2312  0639  3A70               	xorlw	64^48	; case 64
  2313  063A  1903               	skipnz
  2314  063B  2E10               	goto	l85
  2315  063C  2E42               	goto	l68
  2316                           opt subtitle "HI-TECH Software Omniscient Code Generator (Lite mode) build 49521"
  2317                           
  2318  063D                     l1830:	
  2319                           opt subtitle "HI-TECH Software Omniscient Code Generator (Lite mode) build 49521"
  2320                           
  2321                           opt pagewidth 120
  2322                           
  2323                           	opt lm
  2324                           
  2325                           	processor	16F887
  2326                           clrc	macro
  2327                           	bcf	3,0
  2328                           	endm
  2329                           clrz	macro
  2330                           	bcf	3,2
  2331  063D  087A               	movf 2+(??_spi_control+0)+0,w
  2332                           opt subtitle "HI-TECH Software Omniscient Code Generator (Lite mode) build 49521"
  2333  063E  3A00               	xorlw	0^0	; case 0
  2334  063F  1903               	skipnz
  2335  0640  2E2A               	goto	l1828
  2336  0641  2E42               	goto	l68
  2337                           opt subtitle "HI-TECH Software Omniscient Code Generator (Lite mode) build 49521"
  2338                           
  2339                           opt pagewidth 120
  2340                           
  2341  0642                     l82:	
  2342                           opt subtitle "HI-TECH Software Omniscient Code Generator (Lite mode) build 49521"
  2343                           
  2344                           opt pagewidth 120
  2345                           
  2346  0642                     l68:	
  2347  0642  0008               	return
  2348                           opt subtitle "HI-TECH Software Omniscient Code Generator (Lite mode) build 49521"
  2349                           
  2350  0643                     	__end_of_spi_control:
  2351                           opt subtitle "HI-TECH Software Omniscient Code Generator (Lite mode) build 49521"
  2352                           
  2353                           opt pagewidth 120
  2354                           
  2355                           	opt lm
  2356                           
  2357                           	processor	16F887
  2358                           clrc	macro
  2359                           	bcf	3,0
  2360                           	endm
  2361                           clrz	macro
  2362                           	bcf	3,2
  2363                           	endm
  2364                           setc	macro
  2365                           	bsf	3,0
  2366                           	endm
  2367                           setz	macro
  2368                           	bsf	3,2
  2369                           	endm
  2370                           skipc	macro
  2371                           	btfss	3,0
  2372                           	endm
  2373                           skipz	macro
  2374                           	btfss	3,2
  2375                           	endm
  2376                           skipnc	macro
  2377                           	btfsc	3,0
  2378                           	endm
  2379                           skipnz	macro
  2380                           	btfsc	3,2
  2381                           	endm
  2382                           indf	equ	0
  2383                           indf0	equ	0
  2384  03B7                     __ptext401:	;psect for function _uart_open
  2385                           opt subtitle "HI-TECH Software Omniscient Code Generator (Lite mode) build 49521"
  2386                           
  2387                           opt pagewidth 120
  2388                           
  2389  0019                     	__size_of_uart_open	equ	__end_of_uart_open-_uart_open
  2390                           opt subtitle "HI-TECH Software Omniscient Code Generator (Lite mode) build 49521"
  2391  03B7                     _uart_open:	
  2392                           opt subtitle "HI-TECH Software Omniscient Code Generator (Lite mode) build 49521"
  2393                           
  2394                           opt pagewidth 120
  2395  03B7  00F0               	movwf	(uart_open@uartd)
  2396                           opt subtitle "HI-TECH Software Omniscient Code Generator (Lite mode) build 49521"
  2397                           
  2398  03B8                     l1420:	
  2399                           opt subtitle "HI-TECH Software Omniscient Code Generator (Lite mode) build 49521"
  2400  03B8  0870               	movf	(uart_open@uartd),w
  2401  03B9  3A01               	xorlw	01h
  2402  03BA  1903               	skipnz
  2403  03BB  2BBD               	goto	u841
  2404  03BC  2BBE               	goto	u840
  2405  03BD                     u841:
  2406  03BD  2BC1               	goto	l169
  2407  03BE                     u840:
  2408                           opt subtitle "HI-TECH Software Omniscient Code Generator (Lite mode) build 49521"
  2409                           
  2410  03BE                     l1422:	
  2411                           opt subtitle "HI-TECH Software Omniscient Code Generator (Lite mode) build 49521"
  2412  03BE  3000               	movlw	(0)
  2413  03BF  2BCF               	goto	l170
  2414                           opt subtitle "HI-TECH Software Omniscient Code Generator (Lite mode) build 49521"
  2415  03C0                     l1424:	
  2416  03C0  2BCF               	goto	l170
  2417                           opt subtitle "HI-TECH Software Omniscient Code Generator (Lite mode) build 49521"
  2418  03C1                     l169:	
  2419                           opt subtitle "HI-TECH Software Omniscient Code Generator (Lite mode) build 49521"
  2420                           
  2421  03C1  1683               	bsf	status, 5	;RP0=1, select bank1
  2422  03C2  1303               	bcf	status, 6	;RP1=0, select bank1
  2423  03C3  1218               	bcf	(152)^080h,4	;volatile
  2424                           opt subtitle "HI-TECH Software Omniscient Code Generator (Lite mode) build 49521"
  2425                           
  2426  03C4  1283               	bcf	status, 5	;RP0=0, select bank0
  2427  03C5  1303               	bcf	status, 6	;RP1=0, select bank0
  2428  03C6  1798               	bsf	(24),7	;volatile
  2429                           opt subtitle "HI-TECH Software Omniscient Code Generator (Lite mode) build 49521"
  2430                           
  2431  03C7  1683               	bsf	status, 5	;RP0=1, select bank1
  2432  03C8  1303               	bcf	status, 6	;RP1=0, select bank1
  2433  03C9  1698               	bsf	(152)^080h,5	;volatile
  2434                           opt subtitle "HI-TECH Software Omniscient Code Generator (Lite mode) build 49521"
  2435                           
  2436  03CA  1283               	bcf	status, 5	;RP0=0, select bank0
  2437  03CB  1303               	bcf	status, 6	;RP1=0, select bank0
  2438  03CC  1618               	bsf	(24),4	;volatile
  2439                           opt subtitle "HI-TECH Software Omniscient Code Generator (Lite mode) build 49521"
  2440                           
  2441  03CD                     l1426:	
  2442                           opt subtitle "HI-TECH Software Omniscient Code Generator (Lite mode) build 49521"
  2443  03CD  3001               	movlw	(01h)
  2444  03CE  2BCF               	goto	l170
  2445                           opt subtitle "HI-TECH Software Omniscient Code Generator (Lite mode) build 49521"
  2446  03CF                     l1428:	
  2447                           opt subtitle "HI-TECH Software Omniscient Code Generator (Lite mode) build 49521"
  2448                           
  2449  03CF                     l170:	
  2450  03CF  0008               	return
  2451                           opt subtitle "HI-TECH Software Omniscient Code Generator (Lite mode) build 49521"
  2452                           
  2453  03D0                     	__end_of_uart_open:
  2454                           opt subtitle "HI-TECH Software Omniscient Code Generator (Lite mode) build 49521"
  2455                           
  2456                           opt pagewidth 120
  2457                           
  2458                           	opt lm
  2459                           
  2460                           	processor	16F887
  2461                           clrc	macro
  2462                           	bcf	3,0
  2463                           	endm
  2464                           clrz	macro
  2465                           	bcf	3,2
  2466                           	endm
  2467                           setc	macro
  2468                           	bsf	3,0
  2469                           	endm
  2470                           setz	macro
  2471                           	bsf	3,2
  2472                           	endm
  2473                           skipc	macro
  2474                           	btfss	3,0
  2475                           	endm
  2476                           skipz	macro
  2477                           	btfss	3,2
  2478                           	endm
  2479                           skipnc	macro
  2480                           	btfsc	3,0
  2481                           	endm
  2482                           skipnz	macro
  2483                           	btfsc	3,2
  2484                           	endm
  2485                           indf	equ	0
  2486                           indf0	equ	0
  2487                           pc	equ	2
  2488                           pcl	equ	2
  2489  03EC                     __ptext402:	;psect for function _uart_puts
  2490                           opt subtitle "HI-TECH Software Omniscient Code Generator (Lite mode) build 49521"
  2491                           
  2492                           opt pagewidth 120
  2493                           
  2494  002D                     	__size_of_uart_puts	equ	__end_of_uart_puts-_uart_puts
  2495                           opt subtitle "HI-TECH Software Omniscient Code Generator (Lite mode) build 49521"
  2496  03EC                     _uart_puts:	
  2497                           opt subtitle "HI-TECH Software Omniscient Code Generator (Lite mode) build 49521"
  2498                           
  2499                           opt pagewidth 120
  2500  03EC  00F2               	movwf	(uart_puts@uartd)
  2501                           opt subtitle "HI-TECH Software Omniscient Code Generator (Lite mode) build 49521"
  2502                           
  2503  03ED                     l1430:	
  2504                           opt subtitle "HI-TECH Software Omniscient Code Generator (Lite mode) build 49521"
  2505  03ED  0872               	movf	(uart_puts@uartd),w
  2506  03EE  3A01               	xorlw	01h
  2507  03EF  1903               	skipnz
  2508  03F0  2BF2               	goto	u851
  2509  03F1  2BF3               	goto	u850
  2510  03F2                     u851:
  2511  03F2  2C0B               	goto	l1438
  2512  03F3                     u850:
  2513  03F3  2C18               	goto	l229
  2514                           opt subtitle "HI-TECH Software Omniscient Code Generator (Lite mode) build 49521"
  2515                           
  2516  03F4                     l1432:	
  2517                           opt subtitle "HI-TECH Software Omniscient Code Generator (Lite mode) build 49521"
  2518  03F4  2C18               	goto	l229
  2519                           opt subtitle "HI-TECH Software Omniscient Code Generator (Lite mode) build 49521"
  2520  03F5                     l228:	
  2521                           opt subtitle "HI-TECH Software Omniscient Code Generator (Lite mode) build 49521"
  2522                           
  2523  03F5  2C0B               	goto	l1438
  2524                           opt subtitle "HI-TECH Software Omniscient Code Generator (Lite mode) build 49521"
  2525  03F6                     l231:	
  2526                           opt subtitle "HI-TECH Software Omniscient Code Generator (Lite mode) build 49521"
  2527                           
  2528  03F6                     l1434:	
  2529                           opt subtitle "HI-TECH Software Omniscient Code Generator (Lite mode) build 49521"
  2530  03F6  0870               	movf	(uart_puts@string),w
  2531  03F7  0084               	movwf	fsr0
  2532  03F8  120A  118A  2003   	fcall	stringdir
              120A  118A         
  2533  03FD  1283               	bcf	status, 5	;RP0=0, select bank0
  2534  03FE  1303               	bcf	status, 6	;RP1=0, select bank0
  2535  03FF  0099               	movwf	(25)	;volatile
  2536                           opt subtitle "HI-TECH Software Omniscient Code Generator (Lite mode) build 49521"
  2537  0400                     l1436:	
  2538  0400  3001               	movlw	(01h)
  2539  0401  00F1               	movwf	(??_uart_puts+0)+0
  2540  0402  0871               	movf	(??_uart_puts+0)+0,w
  2541  0403  07F0               	addwf	(uart_puts@string),f
  2542                           opt subtitle "HI-TECH Software Omniscient Code Generator (Lite mode) build 49521"
  2543                           
  2544  0404  2C05               	goto	l232
  2545                           opt subtitle "HI-TECH Software Omniscient Code Generator (Lite mode) build 49521"
  2546  0405                     l233:	
  2547                           opt subtitle "HI-TECH Software Omniscient Code Generator (Lite mode) build 49521"
  2548  0405                     l232:	
  2549  0405  1E0C               	btfss	(12),4	;volatile
  2550  0406  2C08               	goto	u861
  2551  0407  2C09               	goto	u860
  2552  0408                     u861:
  2553  0408  2C05               	goto	l232
  2554  0409                     u860:
  2555  0409  2C0B               	goto	l1438
  2556                           opt subtitle "HI-TECH Software Omniscient Code Generator (Lite mode) build 49521"
  2557  040A                     l234:	
  2558  040A  2C0B               	goto	l1438
  2559                           opt subtitle "HI-TECH Software Omniscient Code Generator (Lite mode) build 49521"
  2560                           
  2561  040B                     l230:	
  2562                           opt subtitle "HI-TECH Software Omniscient Code Generator (Lite mode) build 49521"
  2563                           
  2564  040B                     l1438:	
  2565  040B  0870               	movf	(uart_puts@string),w
  2566  040C  0084               	movwf	fsr0
  2567  040D  120A  118A  2003   	fcall	stringdir
              120A  118A         
  2568  0412  3800               	iorlw	0
  2569  0413  1D03               	skipz
  2570  0414  2C16               	goto	u871
  2571  0415  2C17               	goto	u870
  2572  0416                     u871:
  2573  0416  2BF6               	goto	l1434
  2574  0417                     u870:
  2575  0417  2C18               	goto	l229
  2576                           opt subtitle "HI-TECH Software Omniscient Code Generator (Lite mode) build 49521"
  2577  0418                     l235:	
  2578                           opt subtitle "HI-TECH Software Omniscient Code Generator (Lite mode) build 49521"
  2579                           
  2580  0418                     l229:	
  2581  0418  0008               	return
  2582                           opt subtitle "HI-TECH Software Omniscient Code Generator (Lite mode) build 49521"
  2583                           
  2584  0419                     	__end_of_uart_puts:
  2585                           opt subtitle "HI-TECH Software Omniscient Code Generator (Lite mode) build 49521"
  2586                           
  2587                           opt pagewidth 120
  2588                           
  2589                           	opt lm
  2590                           
  2591                           	processor	16F887
  2592                           clrc	macro
  2593                           	bcf	3,0
  2594                           	endm
  2595                           clrz	macro
  2596                           	bcf	3,2
  2597                           	endm
  2598                           setc	macro
  2599                           	bsf	3,0
  2600                           	endm
  2601                           setz	macro
  2602                           	bsf	3,2
  2603                           	endm
  2604                           skipc	macro
  2605                           	btfss	3,0
  2606                           	endm
  2607                           skipz	macro
  2608                           	btfss	3,2
  2609                           	endm
  2610                           skipnc	macro
  2611                           	btfsc	3,0
  2612                           	endm
  2613                           skipnz	macro
  2614                           	btfsc	3,2
  2615                           	endm
  2616                           indf	equ	0
  2617                           indf0	equ	0
  2618  0377                     __ptext403:	;psect for function _spi_open
  2619                           opt subtitle "HI-TECH Software Omniscient Code Generator (Lite mode) build 49521"
  2620                           
  2621                           opt pagewidth 120
  2622                           
  2623  0008                     	__size_of_spi_open	equ	__end_of_spi_open-_spi_open
  2624                           opt subtitle "HI-TECH Software Omniscient Code Generator (Lite mode) build 49521"
  2625  0377                     _spi_open:	
  2626                           opt subtitle "HI-TECH Software Omniscient Code Generator (Lite mode) build 49521"
  2627                           
  2628                           opt pagewidth 120
  2629                           
  2630  0377                     l1440:	
  2631                           opt subtitle "HI-TECH Software Omniscient Code Generator (Lite mode) build 49521"
  2632  0377  1283               	bcf	status, 5	;RP0=0, select bank0
  2633  0378  1303               	bcf	status, 6	;RP1=0, select bank0
  2634  0379  01B4               	clrf	(_inuse)
  2635  037A  0AB4               	incf	(_inuse),f
  2636                           opt subtitle "HI-TECH Software Omniscient Code Generator (Lite mode) build 49521"
  2637                           
  2638  037B  1694               	bsf	(20),5	;volatile
  2639                           opt subtitle "HI-TECH Software Omniscient Code Generator (Lite mode) build 49521"
  2640                           
  2641  037C                     l1442:	
  2642                           opt subtitle "HI-TECH Software Omniscient Code Generator (Lite mode) build 49521"
  2643  037C  3001               	movlw	(01h)
  2644  037D  2B7E               	goto	l89
  2645                           opt subtitle "HI-TECH Software Omniscient Code Generator (Lite mode) build 49521"
  2646  037E                     l1444:	
  2647                           opt subtitle "HI-TECH Software Omniscient Code Generator (Lite mode) build 49521"
  2648                           
  2649  037E                     l89:	
  2650  037E  0008               	return
  2651                           opt subtitle "HI-TECH Software Omniscient Code Generator (Lite mode) build 49521"
  2652                           
  2653  037F                     	__end_of_spi_open:
  2654                           opt subtitle "HI-TECH Software Omniscient Code Generator (Lite mode) build 49521"
  2655                           
  2656                           opt pagewidth 120
  2657                           
  2658                           	opt lm
  2659                           
  2660                           	processor	16F887
  2661                           clrc	macro
  2662                           	bcf	3,0
  2663                           	endm
  2664                           clrz	macro
  2665                           	bcf	3,2
  2666                           	endm
  2667                           setc	macro
  2668                           	bsf	3,0
  2669                           	endm
  2670                           setz	macro
  2671                           	bsf	3,2
  2672                           	endm
  2673                           skipc	macro
  2674                           	btfss	3,0
  2675                           	endm
  2676                           skipz	macro
  2677                           	btfss	3,2
  2678                           	endm
  2679                           skipnc	macro
  2680                           	btfsc	3,0
  2681                           	endm
  2682                           skipnz	macro
  2683                           	btfsc	3,2
  2684                           	endm
  2685                           indf	equ	0
  2686                           indf0	equ	0
  2687                           pc	equ	2
  2688                           pcl	equ	2
  2689                           status	equ	3
  2690                           fsr	equ	4
  2691                           fsr0	equ	4
  2692                           c	equ	1
  2693                           z	equ	0
  2694                           pclath	equ	10
  2695                           # 46 "C:\Program Files (x86)\Microchip\xc8\v1.12\include\pic16f887.h"
  2696                           INDF equ 00h ;# 
  2697                           # 52 "C:\Program Files (x86)\Microchip\xc8\v1.12\include\pic16f887.h"
  2698  0711                     __ptext404:	;psect for function _printf
  2699                           opt subtitle "HI-TECH Software Omniscient Code Generator (Lite mode) build 49521"
  2700                           
  2701                           opt pagewidth 120
  2702                           
  2703  00EF                     	__size_of_printf	equ	__end_of_printf-_printf
  2704                           opt subtitle "HI-TECH Software Omniscient Code Generator (Lite mode) build 49521"
  2705  0711                     _printf:	
  2706                           opt subtitle "HI-TECH Software Omniscient Code Generator (Lite mode) build 49521"
  2707                           
  2708                           opt pagewidth 120
  2709                           
  2710  0711  1283               	bcf	status, 5	;RP0=0, select bank0
  2711  0712  1303               	bcf	status, 6	;RP1=0, select bank0
  2712  0713  00A7               	movwf	(printf@f)
  2713                           opt subtitle "HI-TECH Software Omniscient Code Generator (Lite mode) build 49521"
  2714  0714                     l1614:	
  2715                           opt subtitle "HI-TECH Software Omniscient Code Generator (Lite mode) build 49521"
  2716                           
  2717                           opt pagewidth 120
  2718                           
  2719                           	opt lm
  2720                           
  2721                           	processor	16F887
  2722                           clrc	macro
  2723                           	bcf	3,0
  2724                           	endm
  2725                           clrz	macro
  2726                           	bcf	3,2
  2727  0714  3020               	movlw	(?_printf)&0ffh
  2728  0715  00A2               	movwf	(??_printf+0)+0
  2729  0716  0822               	movf	(??_printf+0)+0,w
  2730  0717  00A5               	movwf	(printf@ap)
  2731                           opt subtitle "HI-TECH Software Omniscient Code Generator (Lite mode) build 49521"
  2732                           
  2733  0718  2FE9               	goto	l1658
  2734                           opt subtitle "HI-TECH Software Omniscient Code Generator (Lite mode) build 49521"
  2735  0719                     l263:	
  2736                           opt subtitle "HI-TECH Software Omniscient Code Generator (Lite mode) build 49521"
  2737                           
  2738  0719                     l1616:	
  2739                           opt subtitle "HI-TECH Software Omniscient Code Generator (Lite mode) build 49521"
  2740  0719  082D               	movf	(printf@c),w
  2741  071A  3A25               	xorlw	025h
  2742  071B  1903               	skipnz
  2743  071C  2F1E               	goto	u1201
  2744  071D  2F1F               	goto	u1200
  2745  071E                     u1201:
  2746  071E  2F26               	goto	l264
  2747  071F                     u1200:
  2748                           opt subtitle "HI-TECH Software Omniscient Code Generator (Lite mode) build 49521"
  2749                           
  2750  071F                     l1618:	
  2751                           opt subtitle "HI-TECH Software Omniscient Code Generator (Lite mode) build 49521"
  2752                           
  2753  071F  082D               	movf	(printf@c),w
  2754  0720  120A  118A  237F   	fcall	_putch
              120A  118A         
  2755                           opt subtitle "HI-TECH Software Omniscient Code Generator (Lite mode) build 49521"
  2756                           
  2757  0725  2FE9               	goto	l1658
  2758                           opt subtitle "HI-TECH Software Omniscient Code Generator (Lite mode) build 49521"
  2759                           
  2760  0726                     l264:	
  2761                           opt subtitle "HI-TECH Software Omniscient Code Generator (Lite mode) build 49521"
  2762                           
  2763                           opt pagewidth 120
  2764  0726  01A6               	clrf	(printf@flag)
  2765                           opt subtitle "HI-TECH Software Omniscient Code Generator (Lite mode) build 49521"
  2766                           
  2767  0727  2F2D               	goto	l1622
  2768                           opt subtitle "HI-TECH Software Omniscient Code Generator (Lite mode) build 49521"
  2769                           
  2770                           opt pagewidth 120
  2771  0728                     l266:	
  2772                           opt subtitle "HI-TECH Software Omniscient Code Generator (Lite mode) build 49521"
  2773                           
  2774  0728  2FFF               	goto	l281
  2775                           opt subtitle "HI-TECH Software Omniscient Code Generator (Lite mode) build 49521"
  2776                           
  2777                           opt pagewidth 120
  2778  0729                     l268:	
  2779  0729  2F42               	goto	l1624
  2780                           opt subtitle "HI-TECH Software Omniscient Code Generator (Lite mode) build 49521"
  2781                           
  2782  072A                     l269:	
  2783                           opt subtitle "HI-TECH Software Omniscient Code Generator (Lite mode) build 49521"
  2784                           
  2785                           opt pagewidth 120
  2786  072A  2F42               	goto	l1624
  2787                           opt subtitle "HI-TECH Software Omniscient Code Generator (Lite mode) build 49521"
  2788                           
  2789                           opt pagewidth 120
  2790  072B                     l271:	
  2791                           opt subtitle "HI-TECH Software Omniscient Code Generator (Lite mode) build 49521"
  2792                           
  2793  072B  2FE9               	goto	l1658
  2794                           opt subtitle "HI-TECH Software Omniscient Code Generator (Lite mode) build 49521"
  2795                           
  2796  072C                     l1620:	
  2797                           opt subtitle "HI-TECH Software Omniscient Code Generator (Lite mode) build 49521"
  2798  072C  2F42               	goto	l1624
  2799                           opt subtitle "HI-TECH Software Omniscient Code Generator (Lite mode) build 49521"
  2800                           
  2801  072D                     l265:	
  2802                           opt subtitle "HI-TECH Software Omniscient Code Generator (Lite mode) build 49521"
  2803  072D                     l1622:	
  2804  072D  3001               	movlw	01h
  2805  072E  07A7               	addwf	(printf@f),f
  2806  072F  30FF               	movlw	-01h
  2807  0730  0727               	addwf	(printf@f),w
  2808  0731  0084               	movwf	fsr0
  2809  0732  120A  118A  2003   	fcall	stringdir
              120A  118A         
  2810  0737  00AD               	movwf	(printf@c)
  2811                           opt subtitle "HI-TECH Software Omniscient Code Generator (Lite mode) build 49521"
  2812                           
  2813                           opt pagewidth 120
  2814                           
  2815                           	opt lm
  2816                           
  2817                           	processor	16F887
  2818                           clrc	macro
  2819                           	bcf	3,0
  2820                           	endm
  2821                           clrz	macro
  2822                           	bcf	3,2
  2823  0738  3A00               	xorlw	0^0	; case 0
  2824  0739  1903               	skipnz
  2825  073A  2FFF               	goto	l281
  2826  073B  3A64               	xorlw	100^0	; case 100
  2827  073C  1903               	skipnz
  2828  073D  2F42               	goto	l1624
  2829  073E  3A0D               	xorlw	105^100	; case 105
  2830  073F  1903               	skipnz
  2831  0740  2F42               	goto	l1624
  2832  0741  2FE9               	goto	l1658
  2833                           opt subtitle "HI-TECH Software Omniscient Code Generator (Lite mode) build 49521"
  2834                           
  2835                           opt pagewidth 120
  2836                           
  2837  0742                     l270:	
  2838                           opt subtitle "HI-TECH Software Omniscient Code Generator (Lite mode) build 49521"
  2839                           
  2840  0742                     l1624:	
  2841                           opt subtitle "HI-TECH Software Omniscient Code Generator (Lite mode) build 49521"
  2842                           
  2843  0742  0825               	movf	(printf@ap),w
  2844  0743  0084               	movwf	fsr0
  2845  0744  1383               	bcf	status, 7	;select IRP bank0
  2846  0745  0800               	movf	indf,w
  2847  0746  00A9               	movwf	(printf@_val)
  2848  0747  0A84               	incf	fsr0,f
  2849  0748  0800               	movf	indf,w
  2850  0749  00AA               	movwf	(printf@_val+1)
  2851                           opt subtitle "HI-TECH Software Omniscient Code Generator (Lite mode) build 49521"
  2852  074A                     l1626:	
  2853  074A  3002               	movlw	(02h)
  2854  074B  00A2               	movwf	(??_printf+0)+0
  2855  074C  0822               	movf	(??_printf+0)+0,w
  2856  074D  07A5               	addwf	(printf@ap),f
  2857                           opt subtitle "HI-TECH Software Omniscient Code Generator (Lite mode) build 49521"
  2858                           
  2859  074E                     l1628:	
  2860                           opt subtitle "HI-TECH Software Omniscient Code Generator (Lite mode) build 49521"
  2861  074E  1FAA               	btfss	(printf@_val+1),7
  2862  074F  2F51               	goto	u1211
  2863  0750  2F52               	goto	u1210
  2864  0751                     u1211:
  2865  0751  2F5C               	goto	l1634
  2866  0752                     u1210:
  2867                           opt subtitle "HI-TECH Software Omniscient Code Generator (Lite mode) build 49521"
  2868                           
  2869  0752                     l1630:	
  2870                           opt subtitle "HI-TECH Software Omniscient Code Generator (Lite mode) build 49521"
  2871  0752  3003               	movlw	(03h)
  2872  0753  00A2               	movwf	(??_printf+0)+0
  2873  0754  0822               	movf	(??_printf+0)+0,w
  2874  0755  04A6               	iorwf	(printf@flag),f
  2875                           opt subtitle "HI-TECH Software Omniscient Code Generator (Lite mode) build 49521"
  2876                           
  2877  0756                     l1632:	
  2878                           opt subtitle "HI-TECH Software Omniscient Code Generator (Lite mode) build 49521"
  2879  0756  09A9               	comf	(printf@_val),f
  2880  0757  09AA               	comf	(printf@_val+1),f
  2881  0758  0AA9               	incf	(printf@_val),f
  2882  0759  1903               	skipnz
  2883  075A  0AAA               	incf	(printf@_val+1),f
  2884  075B  2F5C               	goto	l1634
  2885                           opt subtitle "HI-TECH Software Omniscient Code Generator (Lite mode) build 49521"
  2886                           
  2887  075C                     l272:	
  2888                           opt subtitle "HI-TECH Software Omniscient Code Generator (Lite mode) build 49521"
  2889                           
  2890  075C                     l1634:	
  2891                           opt subtitle "HI-TECH Software Omniscient Code Generator (Lite mode) build 49521"
  2892                           
  2893                           opt pagewidth 120
  2894  075C  01AD               	clrf	(printf@c)
  2895  075D  0AAD               	incf	(printf@c),f
  2896  075E  082D               	movf	(printf@c),w
  2897  075F  3A05               	xorlw	05h
  2898  0760  1D03               	skipz
  2899  0761  2F63               	goto	u1221
  2900  0762  2F64               	goto	u1220
  2901  0763                     u1221:
  2902  0763  2F66               	goto	l1638
  2903  0764                     u1220:
  2904  0764  2F8E               	goto	l1646
  2905                           opt subtitle "HI-TECH Software Omniscient Code Generator (Lite mode) build 49521"
  2906  0765                     l1636:	
  2907  0765  2F8E               	goto	l1646
  2908                           opt subtitle "HI-TECH Software Omniscient Code Generator (Lite mode) build 49521"
  2909                           
  2910  0766                     l273:	
  2911                           opt subtitle "HI-TECH Software Omniscient Code Generator (Lite mode) build 49521"
  2912  0766                     l1638:	
  2913                           opt subtitle "HI-TECH Software Omniscient Code Generator (Lite mode) build 49521"
  2914  0766  082D               	movf	(printf@c),w
  2915  0767  00A2               	movwf	(??_printf+0)+0
  2916  0768  0722               	addwf	(??_printf+0)+0,w
  2917  0769  3E01               	addlw	low((_dpowers-__stringbase))
  2918  076A  0084               	movwf	fsr0
  2919  076B  120A  118A  2003   	fcall	stringdir
              120A  118A         
  2920  0770  00A3               	movwf	(??_printf+1)+0
  2921  0771  120A  118A  2003   	fcall	stringdir
              120A  118A         
  2922  0776  00A4               	movwf	(??_printf+1)+0+1
  2923  0777  0824               	movf	1+(??_printf+1)+0,w
  2924  0778  022A               	subwf	(printf@_val+1),w
  2925  0779  1D03               	skipz
  2926  077A  2F7D               	goto	u1235
  2927  077B  0823               	movf	0+(??_printf+1)+0,w
  2928  077C  0229               	subwf	(printf@_val),w
  2929  077D                     u1235:
  2930  077D  1803               	skipnc
  2931  077E  2F80               	goto	u1231
  2932  077F  2F81               	goto	u1230
  2933  0780                     u1231:
  2934  0780  2F83               	goto	l1642
  2935  0781                     u1230:
  2936  0781  2F8E               	goto	l1646
  2937                           opt subtitle "HI-TECH Software Omniscient Code Generator (Lite mode) build 49521"
  2938                           
  2939  0782                     l1640:	
  2940                           opt subtitle "HI-TECH Software Omniscient Code Generator (Lite mode) build 49521"
  2941  0782  2F8E               	goto	l1646
  2942                           opt subtitle "HI-TECH Software Omniscient Code Generator (Lite mode) build 49521"
  2943  0783                     l275:	
  2944                           opt subtitle "HI-TECH Software Omniscient Code Generator (Lite mode) build 49521"
  2945                           
  2946  0783                     l1642:	
  2947  0783  3001               	movlw	(01h)
  2948  0784  00A2               	movwf	(??_printf+0)+0
  2949  0785  0822               	movf	(??_printf+0)+0,w
  2950  0786  07AD               	addwf	(printf@c),f
  2951                           opt subtitle "HI-TECH Software Omniscient Code Generator (Lite mode) build 49521"
  2952  0787                     l1644:	
  2953  0787  082D               	movf	(printf@c),w
  2954  0788  3A05               	xorlw	05h
  2955  0789  1D03               	skipz
  2956  078A  2F8C               	goto	u1241
  2957  078B  2F8D               	goto	u1240
  2958  078C                     u1241:
  2959  078C  2F66               	goto	l1638
  2960  078D                     u1240:
  2961  078D  2F8E               	goto	l1646
  2962                           opt subtitle "HI-TECH Software Omniscient Code Generator (Lite mode) build 49521"
  2963  078E                     l274:	
  2964                           opt subtitle "HI-TECH Software Omniscient Code Generator (Lite mode) build 49521"
  2965                           
  2966  078E                     l1646:	
  2967                           opt subtitle "HI-TECH Software Omniscient Code Generator (Lite mode) build 49521"
  2968                           
  2969  078E  0826               	movf	(printf@flag),w
  2970  078F  3903               	andlw	03h
  2971  0790  1903               	btfsc	status,2
  2972  0791  2F93               	goto	u1251
  2973  0792  2F94               	goto	u1250
  2974  0793                     u1251:
  2975  0793  2F9B               	goto	l1650
  2976  0794                     u1250:
  2977                           opt subtitle "HI-TECH Software Omniscient Code Generator (Lite mode) build 49521"
  2978                           
  2979  0794                     l1648:	
  2980                           opt subtitle "HI-TECH Software Omniscient Code Generator (Lite mode) build 49521"
  2981  0794  302D               	movlw	(02Dh)
  2982  0795  120A  118A  237F   	fcall	_putch
              120A  118A         
  2983  079A  2F9B               	goto	l1650
  2984                           opt subtitle "HI-TECH Software Omniscient Code Generator (Lite mode) build 49521"
  2985  079B                     l276:	
  2986                           opt subtitle "HI-TECH Software Omniscient Code Generator (Lite mode) build 49521"
  2987                           
  2988  079B                     l1650:	
  2989                           opt subtitle "HI-TECH Software Omniscient Code Generator (Lite mode) build 49521"
  2990                           
  2991  079B  1283               	bcf	status, 5	;RP0=0, select bank0
  2992  079C  1303               	bcf	status, 6	;RP1=0, select bank0
  2993  079D  082D               	movf	(printf@c),w
  2994  079E  00A2               	movwf	(??_printf+0)+0
  2995  079F  0822               	movf	(??_printf+0)+0,w
  2996  07A0  00A8               	movwf	(printf@prec)
  2997                           opt subtitle "HI-TECH Software Omniscient Code Generator (Lite mode) build 49521"
  2998                           
  2999  07A1  2FDB               	goto	l1656
  3000                           opt subtitle "HI-TECH Software Omniscient Code Generator (Lite mode) build 49521"
  3001  07A2                     l278:	
  3002                           opt subtitle "HI-TECH Software Omniscient Code Generator (Lite mode) build 49521"
  3003                           
  3004  07A2                     l1652:	
  3005                           opt subtitle "HI-TECH Software Omniscient Code Generator (Lite mode) build 49521"
  3006                           
  3007  07A2  300A               	movlw	low(0Ah)
  3008  07A3  00F8               	movwf	(?___lwmod)
  3009  07A4  3000               	movlw	high(0Ah)
  3010  07A5  00F9               	movwf	((?___lwmod))+1
  3011  07A6  0828               	movf	(printf@prec),w
  3012  07A7  00A2               	movwf	(??_printf+0)+0
  3013  07A8  0722               	addwf	(??_printf+0)+0,w
  3014  07A9  3E01               	addlw	low((_dpowers-__stringbase))
  3015  07AA  0084               	movwf	fsr0
  3016  07AB  120A  118A  2003   	fcall	stringdir
              120A  118A         
  3017  07B0  00F0               	movwf	(?___lwdiv)
  3018  07B1  120A  118A  2003   	fcall	stringdir
              120A  118A         
  3019  07B6  00F1               	movwf	(?___lwdiv+1)
  3020  07B7  082A               	movf	(printf@_val+1),w
  3021  07B8  01F3               	clrf	1+(?___lwdiv)+02h
  3022  07B9  07F3               	addwf	1+(?___lwdiv)+02h
  3023  07BA  0829               	movf	(printf@_val),w
  3024  07BB  01F2               	clrf	0+(?___lwdiv)+02h
  3025  07BC  07F2               	addwf	0+(?___lwdiv)+02h
  3026                           opt subtitle "HI-TECH Software Omniscient Code Generator (Lite mode) build 49521"
  3027  07BD  120A  118A  2489   	fcall	___lwdiv
              120A  118A         
  3028  07C2  0871               	movf	(1+(?___lwdiv)),w
  3029  07C3  01FB               	clrf	1+(?___lwmod)+02h
  3030  07C4  07FB               	addwf	1+(?___lwmod)+02h
  3031  07C5  0870               	movf	(0+(?___lwdiv)),w
  3032  07C6  01FA               	clrf	0+(?___lwmod)+02h
  3033  07C7  07FA               	addwf	0+(?___lwmod)+02h
  3034                           opt subtitle "HI-TECH Software Omniscient Code Generator (Lite mode) build 49521"
  3035  07C8  120A  118A  2446   	fcall	___lwmod
              120A  118A         
  3036  07CD  0878               	movf	(0+(?___lwmod)),w
  3037  07CE  3E30               	addlw	030h
  3038  07CF  1283               	bcf	status, 5	;RP0=0, select bank0
  3039  07D0  1303               	bcf	status, 6	;RP1=0, select bank0
  3040  07D1  00A3               	movwf	(??_printf+1)+0
  3041  07D2  0823               	movf	(??_printf+1)+0,w
  3042  07D3  00AD               	movwf	(printf@c)
  3043                           opt subtitle "HI-TECH Software Omniscient Code Generator (Lite mode) build 49521"
  3044                           
  3045  07D4                     l1654:	
  3046                           opt subtitle "HI-TECH Software Omniscient Code Generator (Lite mode) build 49521"
  3047                           
  3048  07D4  082D               	movf	(printf@c),w
  3049  07D5  120A  118A  237F   	fcall	_putch
              120A  118A         
  3050  07DA  2FDB               	goto	l1656
  3051                           opt subtitle "HI-TECH Software Omniscient Code Generator (Lite mode) build 49521"
  3052                           
  3053  07DB                     l277:	
  3054                           opt subtitle "HI-TECH Software Omniscient Code Generator (Lite mode) build 49521"
  3055                           
  3056  07DB                     l1656:	
  3057  07DB  30FF               	movlw	(-1)
  3058  07DC  1283               	bcf	status, 5	;RP0=0, select bank0
  3059  07DD  1303               	bcf	status, 6	;RP1=0, select bank0
  3060  07DE  00A2               	movwf	(??_printf+0)+0
  3061  07DF  0822               	movf	(??_printf+0)+0,w
  3062  07E0  07A8               	addwf	(printf@prec),f
  3063  07E1  0828               	movf	((printf@prec)),w
  3064  07E2  3AFF               	xorlw	-1
  3065  07E3  1D03               	skipz
  3066  07E4  2FE6               	goto	u1261
  3067  07E5  2FE7               	goto	u1260
  3068  07E6                     u1261:
  3069  07E6  2FA2               	goto	l1652
  3070  07E7                     u1260:
  3071  07E7  2FE9               	goto	l1658
  3072                           opt subtitle "HI-TECH Software Omniscient Code Generator (Lite mode) build 49521"
  3073  07E8                     l279:	
  3074  07E8  2FE9               	goto	l1658
  3075                           opt subtitle "HI-TECH Software Omniscient Code Generator (Lite mode) build 49521"
  3076                           
  3077  07E9                     l262:	
  3078                           opt subtitle "HI-TECH Software Omniscient Code Generator (Lite mode) build 49521"
  3079                           
  3080  07E9                     l1658:	
  3081  07E9  3001               	movlw	01h
  3082  07EA  1283               	bcf	status, 5	;RP0=0, select bank0
  3083  07EB  1303               	bcf	status, 6	;RP1=0, select bank0
  3084  07EC  07A7               	addwf	(printf@f),f
  3085  07ED  30FF               	movlw	-01h
  3086  07EE  0727               	addwf	(printf@f),w
  3087  07EF  0084               	movwf	fsr0
  3088  07F0  120A  118A  2003   	fcall	stringdir
              120A  118A         
  3089  07F5  00A2               	movwf	(??_printf+0)+0
  3090  07F6  0822               	movf	(??_printf+0)+0,w
  3091  07F7  00AD               	movwf	(printf@c)
  3092  07F8  08AD               	movf	((printf@c)),f
  3093  07F9  1D03               	skipz
  3094  07FA  2FFC               	goto	u1271
  3095  07FB  2FFD               	goto	u1270
  3096  07FC                     u1271:
  3097  07FC  2F19               	goto	l1616
  3098  07FD                     u1270:
  3099  07FD  2FFF               	goto	l281
  3100                           opt subtitle "HI-TECH Software Omniscient Code Generator (Lite mode) build 49521"
  3101  07FE                     l280:	
  3102  07FE  2FFF               	goto	l281
  3103                           opt subtitle "HI-TECH Software Omniscient Code Generator (Lite mode) build 49521"
  3104                           
  3105                           opt pagewidth 120
  3106                           
  3107                           	opt lm
  3108  07FF                     l267:	
  3109                           opt subtitle "HI-TECH Software Omniscient Code Generator (Lite mode) build 49521"
  3110                           
  3111                           opt pagewidth 120
  3112                           
  3113  07FF                     l281:	
  3114  07FF  0008               	return
  3115                           opt subtitle "HI-TECH Software Omniscient Code Generator (Lite mode) build 49521"
  3116                           
  3117  0800                     	__end_of_printf:
  3118                           opt subtitle "HI-TECH Software Omniscient Code Generator (Lite mode) build 49521"
  3119                           
  3120                           opt pagewidth 120
  3121                           
  3122                           	opt lm
  3123                           
  3124                           	processor	16F887
  3125                           clrc	macro
  3126                           	bcf	3,0
  3127                           	endm
  3128                           clrz	macro
  3129                           	bcf	3,2
  3130                           	endm
  3131                           setc	macro
  3132                           	bsf	3,0
  3133                           	endm
  3134                           setz	macro
  3135                           	bsf	3,2
  3136                           	endm
  3137                           skipc	macro
  3138                           	btfss	3,0
  3139                           	endm
  3140                           skipz	macro
  3141                           	btfss	3,2
  3142                           	endm
  3143                           skipnc	macro
  3144                           	btfsc	3,0
  3145                           	endm
  3146                           skipnz	macro
  3147                           	btfsc	3,2
  3148                           	endm
  3149                           indf	equ	0
  3150                           indf0	equ	0
  3151                           pc	equ	2
  3152  037F                     __ptext405:	;psect for function _putch
  3153                           opt subtitle "HI-TECH Software Omniscient Code Generator (Lite mode) build 49521"
  3154                           
  3155                           opt pagewidth 120
  3156                           
  3157  000E                     	__size_of_putch	equ	__end_of_putch-_putch
  3158                           opt subtitle "HI-TECH Software Omniscient Code Generator (Lite mode) build 49521"
  3159  037F                     _putch:	
  3160                           opt subtitle "HI-TECH Software Omniscient Code Generator (Lite mode) build 49521"
  3161                           
  3162                           opt pagewidth 120
  3163  037F  00F3               	movwf	(putch@data)
  3164                           opt subtitle "HI-TECH Software Omniscient Code Generator (Lite mode) build 49521"
  3165                           
  3166  0380                     l1558:	
  3167                           opt subtitle "HI-TECH Software Omniscient Code Generator (Lite mode) build 49521"
  3168  0380  0873               	movf	(putch@data),w
  3169  0381  00F2               	movwf	(??_putch+0)+0
  3170  0382  0872               	movf	(??_putch+0)+0,w
  3171  0383  00F0               	movwf	(?_uart_write)
  3172  0384  1283               	bcf	status, 5	;RP0=0, select bank0
  3173  0385  1303               	bcf	status, 6	;RP1=0, select bank0
  3174  0386  0833               	movf	(_uart1),w
  3175  0387  120A  118A  238D   	fcall	_uart_write
              120A  118A         
  3176                           opt subtitle "HI-TECH Software Omniscient Code Generator (Lite mode) build 49521"
  3177                           
  3178  038C                     l33:	
  3179  038C  0008               	return
  3180                           opt subtitle "HI-TECH Software Omniscient Code Generator (Lite mode) build 49521"
  3181                           
  3182  038D                     	__end_of_putch:
  3183                           opt subtitle "HI-TECH Software Omniscient Code Generator (Lite mode) build 49521"
  3184                           
  3185                           opt pagewidth 120
  3186                           
  3187                           	opt lm
  3188                           
  3189                           	processor	16F887
  3190                           clrc	macro
  3191                           	bcf	3,0
  3192                           	endm
  3193                           clrz	macro
  3194                           	bcf	3,2
  3195                           	endm
  3196                           setc	macro
  3197                           	bsf	3,0
  3198                           	endm
  3199                           setz	macro
  3200                           	bsf	3,2
  3201                           	endm
  3202                           skipc	macro
  3203                           	btfss	3,0
  3204                           	endm
  3205                           skipz	macro
  3206                           	btfss	3,2
  3207                           	endm
  3208                           skipnc	macro
  3209                           	btfsc	3,0
  3210                           	endm
  3211                           skipnz	macro
  3212                           	btfsc	3,2
  3213                           	endm
  3214                           indf	equ	0
  3215                           indf0	equ	0
  3216                           pc	equ	2
  3217  038D                     __ptext406:	;psect for function _uart_write
  3218                           opt subtitle "HI-TECH Software Omniscient Code Generator (Lite mode) build 49521"
  3219                           
  3220                           opt pagewidth 120
  3221                           
  3222  0014                     	__size_of_uart_write	equ	__end_of_uart_write-_uart_write
  3223                           opt subtitle "HI-TECH Software Omniscient Code Generator (Lite mode) build 49521"
  3224  038D                     _uart_write:	
  3225                           opt subtitle "HI-TECH Software Omniscient Code Generator (Lite mode) build 49521"
  3226                           
  3227                           opt pagewidth 120
  3228  038D  00F1               	movwf	(uart_write@uartd)
  3229                           opt subtitle "HI-TECH Software Omniscient Code Generator (Lite mode) build 49521"
  3230                           
  3231  038E                     l1348:	
  3232                           opt subtitle "HI-TECH Software Omniscient Code Generator (Lite mode) build 49521"
  3233  038E  0871               	movf	(uart_write@uartd),w
  3234  038F  3A01               	xorlw	01h
  3235  0390  1903               	skipnz
  3236  0391  2B93               	goto	u771
  3237  0392  2B94               	goto	u770
  3238  0393                     u771:
  3239  0393  2B96               	goto	l1352
  3240  0394                     u770:
  3241  0394  2BA0               	goto	l178
  3242                           opt subtitle "HI-TECH Software Omniscient Code Generator (Lite mode) build 49521"
  3243                           
  3244  0395                     l1350:	
  3245                           opt subtitle "HI-TECH Software Omniscient Code Generator (Lite mode) build 49521"
  3246  0395  2BA0               	goto	l178
  3247                           opt subtitle "HI-TECH Software Omniscient Code Generator (Lite mode) build 49521"
  3248  0396                     l177:	
  3249                           opt subtitle "HI-TECH Software Omniscient Code Generator (Lite mode) build 49521"
  3250                           
  3251  0396                     l1352:	
  3252                           opt subtitle "HI-TECH Software Omniscient Code Generator (Lite mode) build 49521"
  3253  0396  0870               	movf	(uart_write@data),w
  3254  0397  1283               	bcf	status, 5	;RP0=0, select bank0
  3255  0398  1303               	bcf	status, 6	;RP1=0, select bank0
  3256  0399  0099               	movwf	(25)	;volatile
  3257                           opt subtitle "HI-TECH Software Omniscient Code Generator (Lite mode) build 49521"
  3258                           
  3259  039A  2B9B               	goto	l179
  3260                           opt subtitle "HI-TECH Software Omniscient Code Generator (Lite mode) build 49521"
  3261  039B                     l180:	
  3262                           opt subtitle "HI-TECH Software Omniscient Code Generator (Lite mode) build 49521"
  3263  039B                     l179:	
  3264  039B  1E0C               	btfss	(12),4	;volatile
  3265  039C  2B9E               	goto	u781
  3266  039D  2B9F               	goto	u780
  3267  039E                     u781:
  3268  039E  2B9B               	goto	l179
  3269  039F                     u780:
  3270  039F  2BA0               	goto	l178
  3271                           opt subtitle "HI-TECH Software Omniscient Code Generator (Lite mode) build 49521"
  3272  03A0                     l181:	
  3273                           opt subtitle "HI-TECH Software Omniscient Code Generator (Lite mode) build 49521"
  3274                           
  3275  03A0                     l178:	
  3276  03A0  0008               	return
  3277                           opt subtitle "HI-TECH Software Omniscient Code Generator (Lite mode) build 49521"
  3278                           
  3279  03A1                     	__end_of_uart_write:
  3280                           opt subtitle "HI-TECH Software Omniscient Code Generator (Lite mode) build 49521"
  3281                           
  3282                           opt pagewidth 120
  3283                           
  3284                           	opt lm
  3285                           
  3286                           	processor	16F887
  3287                           clrc	macro
  3288                           	bcf	3,0
  3289                           	endm
  3290                           clrz	macro
  3291                           	bcf	3,2
  3292                           	endm
  3293                           setc	macro
  3294                           	bsf	3,0
  3295                           	endm
  3296                           setz	macro
  3297                           	bsf	3,2
  3298                           	endm
  3299                           skipc	macro
  3300                           	btfss	3,0
  3301                           	endm
  3302                           skipz	macro
  3303                           	btfss	3,2
  3304                           	endm
  3305                           skipnc	macro
  3306                           	btfsc	3,0
  3307                           	endm
  3308                           skipnz	macro
  3309                           	btfsc	3,2
  3310                           	endm
  3311                           indf	equ	0
  3312                           indf0	equ	0
  3313                           pc	equ	2
  3314                           pcl	equ	2
  3315                           status	equ	3
  3316  03D0                     __ptext407:	;psect for function _spi_trans
  3317                           opt subtitle "HI-TECH Software Omniscient Code Generator (Lite mode) build 49521"
  3318                           
  3319                           opt pagewidth 120
  3320                           
  3321  001C                     	__size_of_spi_trans	equ	__end_of_spi_trans-_spi_trans
  3322                           opt subtitle "HI-TECH Software Omniscient Code Generator (Lite mode) build 49521"
  3323  03D0                     _spi_trans:	
  3324                           opt subtitle "HI-TECH Software Omniscient Code Generator (Lite mode) build 49521"
  3325                           
  3326                           opt pagewidth 120
  3327                           
  3328  03D0  00F2               	movwf	(spi_trans@spid)
  3329                           opt subtitle "HI-TECH Software Omniscient Code Generator (Lite mode) build 49521"
  3330  03D1                     l1584:	
  3331                           opt subtitle "HI-TECH Software Omniscient Code Generator (Lite mode) build 49521"
  3332                           
  3333  03D1  0870               	movf	(spi_trans@data),w
  3334  03D2  1283               	bcf	status, 5	;RP0=0, select bank0
  3335  03D3  1303               	bcf	status, 6	;RP1=0, select bank0
  3336  03D4  0093               	movwf	(19)	;volatile
  3337                           opt subtitle "HI-TECH Software Omniscient Code Generator (Lite mode) build 49521"
  3338                           
  3339  03D5  2BD7               	goto	l1586
  3340                           opt subtitle "HI-TECH Software Omniscient Code Generator (Lite mode) build 49521"
  3341  03D6                     l126:	
  3342  03D6  2BD7               	goto	l1586
  3343                           opt subtitle "HI-TECH Software Omniscient Code Generator (Lite mode) build 49521"
  3344  03D7                     l125:	
  3345                           opt subtitle "HI-TECH Software Omniscient Code Generator (Lite mode) build 49521"
  3346  03D7                     l1586:	
  3347  03D7  0872               	movf	(spi_trans@spid),w
  3348  03D8  120A  118A  2370   	fcall	_spi_available
              120A  118A         
  3349  03DD  3A00               	xorlw	0
  3350  03DE  1903               	skipnz
  3351  03DF  2BE1               	goto	u1131
  3352  03E0  2BE2               	goto	u1130
  3353  03E1                     u1131:
  3354  03E1  2BD7               	goto	l1586
  3355  03E2                     u1130:
  3356  03E2  2BE3               	goto	l1588
  3357                           opt subtitle "HI-TECH Software Omniscient Code Generator (Lite mode) build 49521"
  3358  03E3                     l127:	
  3359                           opt subtitle "HI-TECH Software Omniscient Code Generator (Lite mode) build 49521"
  3360                           
  3361  03E3                     l1588:	
  3362                           opt subtitle "HI-TECH Software Omniscient Code Generator (Lite mode) build 49521"
  3363  03E3  1283               	bcf	status, 5	;RP0=0, select bank0
  3364  03E4  1303               	bcf	status, 6	;RP1=0, select bank0
  3365  03E5  0813               	movf	(19),w	;volatile
  3366  03E6  00F1               	movwf	(??_spi_trans+0)+0
  3367  03E7  0871               	movf	(??_spi_trans+0)+0,w
  3368  03E8  00F3               	movwf	(spi_trans@rxtmp)
  3369                           opt subtitle "HI-TECH Software Omniscient Code Generator (Lite mode) build 49521"
  3370                           
  3371  03E9  0873               	movf	(spi_trans@rxtmp),w
  3372  03EA  2BEB               	goto	l128
  3373                           opt subtitle "HI-TECH Software Omniscient Code Generator (Lite mode) build 49521"
  3374  03EB                     l1590:	
  3375                           opt subtitle "HI-TECH Software Omniscient Code Generator (Lite mode) build 49521"
  3376                           
  3377  03EB                     l128:	
  3378  03EB  0008               	return
  3379                           opt subtitle "HI-TECH Software Omniscient Code Generator (Lite mode) build 49521"
  3380                           
  3381  03EC                     	__end_of_spi_trans:
  3382                           opt subtitle "HI-TECH Software Omniscient Code Generator (Lite mode) build 49521"
  3383                           
  3384                           opt pagewidth 120
  3385                           
  3386                           	opt lm
  3387                           
  3388                           	processor	16F887
  3389                           clrc	macro
  3390                           	bcf	3,0
  3391                           	endm
  3392                           clrz	macro
  3393                           	bcf	3,2
  3394                           	endm
  3395                           setc	macro
  3396                           	bsf	3,0
  3397                           	endm
  3398                           setz	macro
  3399                           	bsf	3,2
  3400                           	endm
  3401                           skipc	macro
  3402                           	btfss	3,0
  3403                           	endm
  3404                           skipz	macro
  3405                           	btfss	3,2
  3406                           	endm
  3407                           skipnc	macro
  3408                           	btfsc	3,0
  3409                           	endm
  3410                           skipnz	macro
  3411                           	btfsc	3,2
  3412                           	endm
  3413                           indf	equ	0
  3414                           indf0	equ	0
  3415  0366                     __ptext408:	;psect for function _spi_close
  3416                           opt subtitle "HI-TECH Software Omniscient Code Generator (Lite mode) build 49521"
  3417                           
  3418                           opt pagewidth 120
  3419                           
  3420  0005                     	__size_of_spi_close	equ	__end_of_spi_close-_spi_close
  3421                           opt subtitle "HI-TECH Software Omniscient Code Generator (Lite mode) build 49521"
  3422  0366                     _spi_close:	
  3423                           opt subtitle "HI-TECH Software Omniscient Code Generator (Lite mode) build 49521"
  3424                           
  3425                           opt pagewidth 120
  3426                           
  3427  0366                     l1446:	
  3428                           opt subtitle "HI-TECH Software Omniscient Code Generator (Lite mode) build 49521"
  3429  0366  1283               	bcf	status, 5	;RP0=0, select bank0
  3430  0367  1303               	bcf	status, 6	;RP1=0, select bank0
  3431  0368  01B4               	clrf	(_inuse)
  3432                           opt subtitle "HI-TECH Software Omniscient Code Generator (Lite mode) build 49521"
  3433                           
  3434  0369  1294               	bcf	(20),5	;volatile
  3435                           opt subtitle "HI-TECH Software Omniscient Code Generator (Lite mode) build 49521"
  3436                           
  3437                           opt pagewidth 120
  3438                           
  3439  036A                     l92:	
  3440  036A  0008               	return
  3441                           opt subtitle "HI-TECH Software Omniscient Code Generator (Lite mode) build 49521"
  3442                           
  3443  036B                     	__end_of_spi_close:
  3444                           opt subtitle "HI-TECH Software Omniscient Code Generator (Lite mode) build 49521"
  3445                           
  3446                           opt pagewidth 120
  3447                           
  3448                           	opt lm
  3449                           
  3450                           	processor	16F887
  3451                           clrc	macro
  3452                           	bcf	3,0
  3453                           	endm
  3454                           clrz	macro
  3455                           	bcf	3,2
  3456                           	endm
  3457                           setc	macro
  3458                           	bsf	3,0
  3459                           	endm
  3460                           setz	macro
  3461                           	bsf	3,2
  3462                           	endm
  3463                           skipc	macro
  3464                           	btfss	3,0
  3465                           	endm
  3466                           skipz	macro
  3467                           	btfss	3,2
  3468                           	endm
  3469                           skipnc	macro
  3470                           	btfsc	3,0
  3471                           	endm
  3472                           skipnz	macro
  3473                           	btfsc	3,2
  3474                           	endm
  3475                           indf	equ	0
  3476                           indf0	equ	0
  3477                           pc	equ	2
  3478                           pcl	equ	2
  3479                           status	equ	3
  3480                           fsr	equ	4
  3481                           fsr0	equ	4
  3482  0370                     __ptext409:	;psect for function _spi_available
  3483                           opt subtitle "HI-TECH Software Omniscient Code Generator (Lite mode) build 49521"
  3484                           
  3485                           opt pagewidth 120
  3486                           
  3487  0007                     	__size_of_spi_available	equ	__end_of_spi_available-_spi_available
  3488                           opt subtitle "HI-TECH Software Omniscient Code Generator (Lite mode) build 49521"
  3489  0370                     _spi_available:	
  3490                           opt subtitle "HI-TECH Software Omniscient Code Generator (Lite mode) build 49521"
  3491                           
  3492                           opt pagewidth 120
  3493                           
  3494  0370                     l1454:	
  3495                           opt subtitle "HI-TECH Software Omniscient Code Generator (Lite mode) build 49521"
  3496  0370  3000               	movlw	0
  3497  0371  1683               	bsf	status, 5	;RP0=1, select bank1
  3498  0372  1303               	bcf	status, 6	;RP1=0, select bank1
  3499  0373  1814               	btfsc	(148)^080h,0	;volatile
  3500  0374  3001               	movlw	1
  3501  0375  2B76               	goto	l140
  3502                           opt subtitle "HI-TECH Software Omniscient Code Generator (Lite mode) build 49521"
  3503  0376                     l1456:	
  3504                           opt subtitle "HI-TECH Software Omniscient Code Generator (Lite mode) build 49521"
  3505                           
  3506  0376                     l140:	
  3507  0376  0008               	return
  3508                           opt subtitle "HI-TECH Software Omniscient Code Generator (Lite mode) build 49521"
  3509                           
  3510  0377                     	__end_of_spi_available:
  3511                           opt subtitle "HI-TECH Software Omniscient Code Generator (Lite mode) build 49521"
  3512                           
  3513                           opt pagewidth 120
  3514                           
  3515                           	opt lm
  3516                           
  3517                           	processor	16F887
  3518                           clrc	macro
  3519                           	bcf	3,0
  3520                           	endm
  3521                           clrz	macro
  3522                           	bcf	3,2
  3523                           	endm
  3524                           setc	macro
  3525                           	bsf	3,0
  3526                           	endm
  3527                           setz	macro
  3528                           	bsf	3,2
  3529                           	endm
  3530                           skipc	macro
  3531                           	btfss	3,0
  3532                           	endm
  3533                           skipz	macro
  3534                           	btfss	3,2
  3535                           	endm
  3536                           skipnc	macro
  3537                           	btfsc	3,0
  3538                           	endm
  3539                           skipnz	macro
  3540                           	btfsc	3,2
  3541                           	endm
  3542                           indf	equ	0
  3543                           indf0	equ	0
  3544                           pc	equ	2
  3545                           pcl	equ	2
  3546  0489                     __ptext410:	;psect for function ___lwdiv
  3547                           opt subtitle "HI-TECH Software Omniscient Code Generator (Lite mode) build 49521"
  3548                           
  3549                           opt pagewidth 120
  3550                           
  3551  004D                     	__size_of___lwdiv	equ	__end_of___lwdiv-___lwdiv
  3552                           opt subtitle "HI-TECH Software Omniscient Code Generator (Lite mode) build 49521"
  3553  0489                     ___lwdiv:	
  3554                           opt subtitle "HI-TECH Software Omniscient Code Generator (Lite mode) build 49521"
  3555                           
  3556                           opt pagewidth 120
  3557                           
  3558  0489                     l1508:	
  3559  0489  01F5               	clrf	(___lwdiv@quotient)
  3560  048A  01F6               	clrf	(___lwdiv@quotient+1)
  3561                           opt subtitle "HI-TECH Software Omniscient Code Generator (Lite mode) build 49521"
  3562                           
  3563  048B                     l1510:	
  3564  048B  0871               	movf	(___lwdiv@divisor+1),w
  3565  048C  0470               	iorwf	(___lwdiv@divisor),w
  3566  048D  1903               	skipnz
  3567  048E  2C90               	goto	u961
  3568  048F  2C91               	goto	u960
  3569  0490                     u961:
  3570  0490  2CCE               	goto	l1530
  3571  0491                     u960:
  3572                           opt subtitle "HI-TECH Software Omniscient Code Generator (Lite mode) build 49521"
  3573                           
  3574  0491                     l1512:	
  3575  0491  01F7               	clrf	(___lwdiv@counter)
  3576  0492  0AF7               	incf	(___lwdiv@counter),f
  3577                           opt subtitle "HI-TECH Software Omniscient Code Generator (Lite mode) build 49521"
  3578  0493  2CA0               	goto	l1518
  3579                           opt subtitle "HI-TECH Software Omniscient Code Generator (Lite mode) build 49521"
  3580  0494                     l378:	
  3581                           opt subtitle "HI-TECH Software Omniscient Code Generator (Lite mode) build 49521"
  3582                           
  3583  0494                     l1514:	
  3584  0494  3001               	movlw	01h
  3585                           opt subtitle "HI-TECH Software Omniscient Code Generator (Lite mode) build 49521"
  3586  0495                     u975:
  3587  0495  1003               	clrc
  3588  0496  0DF0               	rlf	(___lwdiv@divisor),f
  3589  0497  0DF1               	rlf	(___lwdiv@divisor+1),f
  3590  0498  3EFF               	addlw	-1
  3591  0499  1D03               	skipz
  3592  049A  2C95               	goto	u975
  3593                           opt subtitle "HI-TECH Software Omniscient Code Generator (Lite mode) build 49521"
  3594                           
  3595  049B                     l1516:	
  3596  049B  3001               	movlw	(01h)
  3597  049C  00F4               	movwf	(??___lwdiv+0)+0
  3598  049D  0874               	movf	(??___lwdiv+0)+0,w
  3599  049E  07F7               	addwf	(___lwdiv@counter),f
  3600  049F  2CA0               	goto	l1518
  3601                           opt subtitle "HI-TECH Software Omniscient Code Generator (Lite mode) build 49521"
  3602                           
  3603  04A0                     l377:	
  3604                           opt subtitle "HI-TECH Software Omniscient Code Generator (Lite mode) build 49521"
  3605                           
  3606  04A0                     l1518:	
  3607  04A0  1FF1               	btfss	(___lwdiv@divisor+1),(15)&7
  3608  04A1  2CA3               	goto	u981
  3609  04A2  2CA4               	goto	u980
  3610  04A3                     u981:
  3611  04A3  2C94               	goto	l1514
  3612  04A4                     u980:
  3613  04A4  2CA6               	goto	l1520
  3614                           opt subtitle "HI-TECH Software Omniscient Code Generator (Lite mode) build 49521"
  3615  04A5                     l379:	
  3616  04A5  2CA6               	goto	l1520
  3617                           opt subtitle "HI-TECH Software Omniscient Code Generator (Lite mode) build 49521"
  3618                           
  3619  04A6                     l380:	
  3620                           opt subtitle "HI-TECH Software Omniscient Code Generator (Lite mode) build 49521"
  3621                           
  3622  04A6                     l1520:	
  3623  04A6  3001               	movlw	01h
  3624                           opt subtitle "HI-TECH Software Omniscient Code Generator (Lite mode) build 49521"
  3625  04A7                     u995:
  3626  04A7  1003               	clrc
  3627  04A8  0DF5               	rlf	(___lwdiv@quotient),f
  3628  04A9  0DF6               	rlf	(___lwdiv@quotient+1),f
  3629  04AA  3EFF               	addlw	-1
  3630  04AB  1D03               	skipz
  3631  04AC  2CA7               	goto	u995
  3632                           opt subtitle "HI-TECH Software Omniscient Code Generator (Lite mode) build 49521"
  3633  04AD  0871               	movf	(___lwdiv@divisor+1),w
  3634  04AE  0273               	subwf	(___lwdiv@dividend+1),w
  3635  04AF  1D03               	skipz
  3636  04B0  2CB3               	goto	u1005
  3637  04B1  0870               	movf	(___lwdiv@divisor),w
  3638  04B2  0272               	subwf	(___lwdiv@dividend),w
  3639  04B3                     u1005:
  3640  04B3  1C03               	skipc
  3641  04B4  2CB6               	goto	u1001
  3642  04B5  2CB7               	goto	u1000
  3643  04B6                     u1001:
  3644  04B6  2CBF               	goto	l1526
  3645  04B7                     u1000:
  3646                           opt subtitle "HI-TECH Software Omniscient Code Generator (Lite mode) build 49521"
  3647                           
  3648  04B7                     l1522:	
  3649  04B7  0870               	movf	(___lwdiv@divisor),w
  3650  04B8  02F2               	subwf	(___lwdiv@dividend),f
  3651  04B9  0871               	movf	(___lwdiv@divisor+1),w
  3652  04BA  1C03               	skipc
  3653  04BB  03F3               	decf	(___lwdiv@dividend+1),f
  3654  04BC  02F3               	subwf	(___lwdiv@dividend+1),f
  3655                           opt subtitle "HI-TECH Software Omniscient Code Generator (Lite mode) build 49521"
  3656                           
  3657  04BD                     l1524:	
  3658  04BD  1475               	bsf	(___lwdiv@quotient)+(0/8),(0)&7
  3659  04BE  2CBF               	goto	l1526
  3660                           opt subtitle "HI-TECH Software Omniscient Code Generator (Lite mode) build 49521"
  3661                           
  3662  04BF                     l381:	
  3663                           opt subtitle "HI-TECH Software Omniscient Code Generator (Lite mode) build 49521"
  3664                           
  3665  04BF                     l1526:	
  3666  04BF  3001               	movlw	01h
  3667                           opt subtitle "HI-TECH Software Omniscient Code Generator (Lite mode) build 49521"
  3668  04C0                     u1015:
  3669  04C0  1003               	clrc
  3670  04C1  0CF1               	rrf	(___lwdiv@divisor+1),f
  3671  04C2  0CF0               	rrf	(___lwdiv@divisor),f
  3672  04C3  3EFF               	addlw	-1
  3673  04C4  1D03               	skipz
  3674  04C5  2CC0               	goto	u1015
  3675                           opt subtitle "HI-TECH Software Omniscient Code Generator (Lite mode) build 49521"
  3676                           
  3677  04C6                     l1528:	
  3678  04C6  3001               	movlw	low(01h)
  3679  04C7  02F7               	subwf	(___lwdiv@counter),f
  3680  04C8  1D03               	btfss	status,2
  3681  04C9  2CCB               	goto	u1021
  3682  04CA  2CCC               	goto	u1020
  3683  04CB                     u1021:
  3684  04CB  2CA6               	goto	l1520
  3685  04CC                     u1020:
  3686  04CC  2CCE               	goto	l1530
  3687                           opt subtitle "HI-TECH Software Omniscient Code Generator (Lite mode) build 49521"
  3688  04CD                     l382:	
  3689  04CD  2CCE               	goto	l1530
  3690                           opt subtitle "HI-TECH Software Omniscient Code Generator (Lite mode) build 49521"
  3691                           
  3692  04CE                     l376:	
  3693                           opt subtitle "HI-TECH Software Omniscient Code Generator (Lite mode) build 49521"
  3694                           
  3695  04CE                     l1530:	
  3696  04CE  0876               	movf	(___lwdiv@quotient+1),w
  3697  04CF  01F1               	clrf	(?___lwdiv+1)
  3698  04D0  07F1               	addwf	(?___lwdiv+1)
  3699  04D1  0875               	movf	(___lwdiv@quotient),w
  3700  04D2  01F0               	clrf	(?___lwdiv)
  3701  04D3  07F0               	addwf	(?___lwdiv)
  3702                           opt subtitle "HI-TECH Software Omniscient Code Generator (Lite mode) build 49521"
  3703  04D4  2CD5               	goto	l383
  3704                           opt subtitle "HI-TECH Software Omniscient Code Generator (Lite mode) build 49521"
  3705  04D5                     l1532:	
  3706                           opt subtitle "HI-TECH Software Omniscient Code Generator (Lite mode) build 49521"
  3707                           
  3708  04D5                     l383:	
  3709  04D5  0008               	return
  3710                           opt subtitle "HI-TECH Software Omniscient Code Generator (Lite mode) build 49521"
  3711                           
  3712  04D6                     	__end_of___lwdiv:
  3713                           opt subtitle "HI-TECH Software Omniscient Code Generator (Lite mode) build 49521"
  3714                           
  3715                           opt pagewidth 120
  3716                           
  3717                           	opt lm
  3718                           
  3719                           	processor	16F887
  3720                           clrc	macro
  3721                           	bcf	3,0
  3722                           	endm
  3723                           clrz	macro
  3724                           	bcf	3,2
  3725                           	endm
  3726                           setc	macro
  3727                           	bsf	3,0
  3728                           	endm
  3729                           setz	macro
  3730                           	bsf	3,2
  3731                           	endm
  3732                           skipc	macro
  3733                           	btfss	3,0
  3734                           	endm
  3735                           skipz	macro
  3736                           	btfss	3,2
  3737                           	endm
  3738                           skipnc	macro
  3739                           	btfsc	3,0
  3740                           	endm
  3741                           skipnz	macro
  3742                           	btfsc	3,2
  3743                           	endm
  3744                           indf	equ	0
  3745                           indf0	equ	0
  3746                           pc	equ	2
  3747  0446                     __ptext411:	;psect for function ___lwmod
  3748                           opt subtitle "HI-TECH Software Omniscient Code Generator (Lite mode) build 49521"
  3749                           
  3750                           opt pagewidth 120
  3751                           
  3752  0043                     	__size_of___lwmod	equ	__end_of___lwmod-___lwmod
  3753                           opt subtitle "HI-TECH Software Omniscient Code Generator (Lite mode) build 49521"
  3754  0446                     ___lwmod:	
  3755                           opt subtitle "HI-TECH Software Omniscient Code Generator (Lite mode) build 49521"
  3756                           
  3757                           opt pagewidth 120
  3758                           
  3759  0446                     l1592:	
  3760  0446  0879               	movf	(___lwmod@divisor+1),w
  3761  0447  0478               	iorwf	(___lwmod@divisor),w
  3762  0448  1903               	skipnz
  3763  0449  2C4B               	goto	u1141
  3764  044A  2C4C               	goto	u1140
  3765  044B                     u1141:
  3766  044B  2C81               	goto	l1610
  3767  044C                     u1140:
  3768                           opt subtitle "HI-TECH Software Omniscient Code Generator (Lite mode) build 49521"
  3769                           
  3770  044C                     l1594:	
  3771  044C  01FD               	clrf	(___lwmod@counter)
  3772  044D  0AFD               	incf	(___lwmod@counter),f
  3773                           opt subtitle "HI-TECH Software Omniscient Code Generator (Lite mode) build 49521"
  3774  044E  2C5B               	goto	l1600
  3775                           opt subtitle "HI-TECH Software Omniscient Code Generator (Lite mode) build 49521"
  3776  044F                     l388:	
  3777                           opt subtitle "HI-TECH Software Omniscient Code Generator (Lite mode) build 49521"
  3778                           
  3779  044F                     l1596:	
  3780  044F  3001               	movlw	01h
  3781                           opt subtitle "HI-TECH Software Omniscient Code Generator (Lite mode) build 49521"
  3782  0450                     u1155:
  3783  0450  1003               	clrc
  3784  0451  0DF8               	rlf	(___lwmod@divisor),f
  3785  0452  0DF9               	rlf	(___lwmod@divisor+1),f
  3786  0453  3EFF               	addlw	-1
  3787  0454  1D03               	skipz
  3788  0455  2C50               	goto	u1155
  3789                           opt subtitle "HI-TECH Software Omniscient Code Generator (Lite mode) build 49521"
  3790                           
  3791  0456                     l1598:	
  3792  0456  3001               	movlw	(01h)
  3793  0457  00FC               	movwf	(??___lwmod+0)+0
  3794  0458  087C               	movf	(??___lwmod+0)+0,w
  3795  0459  07FD               	addwf	(___lwmod@counter),f
  3796  045A  2C5B               	goto	l1600
  3797                           opt subtitle "HI-TECH Software Omniscient Code Generator (Lite mode) build 49521"
  3798                           
  3799  045B                     l387:	
  3800                           opt subtitle "HI-TECH Software Omniscient Code Generator (Lite mode) build 49521"
  3801                           
  3802  045B                     l1600:	
  3803  045B  1FF9               	btfss	(___lwmod@divisor+1),(15)&7
  3804  045C  2C5E               	goto	u1161
  3805  045D  2C5F               	goto	u1160
  3806  045E                     u1161:
  3807  045E  2C4F               	goto	l1596
  3808  045F                     u1160:
  3809  045F  2C61               	goto	l1602
  3810                           opt subtitle "HI-TECH Software Omniscient Code Generator (Lite mode) build 49521"
  3811  0460                     l389:	
  3812  0460  2C61               	goto	l1602
  3813                           opt subtitle "HI-TECH Software Omniscient Code Generator (Lite mode) build 49521"
  3814                           
  3815  0461                     l390:	
  3816                           opt subtitle "HI-TECH Software Omniscient Code Generator (Lite mode) build 49521"
  3817                           
  3818  0461                     l1602:	
  3819  0461  0879               	movf	(___lwmod@divisor+1),w
  3820  0462  027B               	subwf	(___lwmod@dividend+1),w
  3821  0463  1D03               	skipz
  3822  0464  2C67               	goto	u1175
  3823  0465  0878               	movf	(___lwmod@divisor),w
  3824  0466  027A               	subwf	(___lwmod@dividend),w
  3825  0467                     u1175:
  3826  0467  1C03               	skipc
  3827  0468  2C6A               	goto	u1171
  3828  0469  2C6B               	goto	u1170
  3829  046A                     u1171:
  3830  046A  2C72               	goto	l1606
  3831  046B                     u1170:
  3832                           opt subtitle "HI-TECH Software Omniscient Code Generator (Lite mode) build 49521"
  3833                           
  3834  046B                     l1604:	
  3835  046B  0878               	movf	(___lwmod@divisor),w
  3836  046C  02FA               	subwf	(___lwmod@dividend),f
  3837  046D  0879               	movf	(___lwmod@divisor+1),w
  3838  046E  1C03               	skipc
  3839  046F  03FB               	decf	(___lwmod@dividend+1),f
  3840  0470  02FB               	subwf	(___lwmod@dividend+1),f
  3841  0471  2C72               	goto	l1606
  3842                           opt subtitle "HI-TECH Software Omniscient Code Generator (Lite mode) build 49521"
  3843  0472                     l391:	
  3844                           opt subtitle "HI-TECH Software Omniscient Code Generator (Lite mode) build 49521"
  3845                           
  3846  0472                     l1606:	
  3847  0472  3001               	movlw	01h
  3848                           opt subtitle "HI-TECH Software Omniscient Code Generator (Lite mode) build 49521"
  3849  0473                     u1185:
  3850  0473  1003               	clrc
  3851  0474  0CF9               	rrf	(___lwmod@divisor+1),f
  3852  0475  0CF8               	rrf	(___lwmod@divisor),f
  3853  0476  3EFF               	addlw	-1
  3854  0477  1D03               	skipz
  3855  0478  2C73               	goto	u1185
  3856                           opt subtitle "HI-TECH Software Omniscient Code Generator (Lite mode) build 49521"
  3857                           
  3858  0479                     l1608:	
  3859  0479  3001               	movlw	low(01h)
  3860  047A  02FD               	subwf	(___lwmod@counter),f
  3861  047B  1D03               	btfss	status,2
  3862  047C  2C7E               	goto	u1191
  3863  047D  2C7F               	goto	u1190
  3864  047E                     u1191:
  3865  047E  2C61               	goto	l1602
  3866  047F                     u1190:
  3867  047F  2C81               	goto	l1610
  3868                           opt subtitle "HI-TECH Software Omniscient Code Generator (Lite mode) build 49521"
  3869  0480                     l392:	
  3870  0480  2C81               	goto	l1610
  3871                           opt subtitle "HI-TECH Software Omniscient Code Generator (Lite mode) build 49521"
  3872                           
  3873  0481                     l386:	
  3874                           opt subtitle "HI-TECH Software Omniscient Code Generator (Lite mode) build 49521"
  3875                           
  3876  0481                     l1610:	
  3877  0481  087B               	movf	(___lwmod@dividend+1),w
  3878  0482  01F9               	clrf	(?___lwmod+1)
  3879  0483  07F9               	addwf	(?___lwmod+1)
  3880  0484  087A               	movf	(___lwmod@dividend),w
  3881  0485  01F8               	clrf	(?___lwmod)
  3882  0486  07F8               	addwf	(?___lwmod)
  3883                           opt subtitle "HI-TECH Software Omniscient Code Generator (Lite mode) build 49521"
  3884  0487  2C88               	goto	l393
  3885                           opt subtitle "HI-TECH Software Omniscient Code Generator (Lite mode) build 49521"
  3886  0488                     l1612:	
  3887                           opt subtitle "HI-TECH Software Omniscient Code Generator (Lite mode) build 49521"
  3888                           
  3889  0488                     l393:	
  3890  0488  0008               	return
  3891                           opt subtitle "HI-TECH Software Omniscient Code Generator (Lite mode) build 49521"
  3892                           
  3893  0489                     	__end_of___lwmod:
  3894                           opt subtitle "HI-TECH Software Omniscient Code Generator (Lite mode) build 49521"
  3895                           
  3896                           opt pagewidth 120
  3897                           
  3898                           	opt lm
  3899                           
  3900                           	processor	16F887
  3901                           clrc	macro
  3902                           	bcf	3,0
  3903                           	endm
  3904                           clrz	macro
  3905                           	bcf	3,2
  3906                           	endm
  3907                           setc	macro
  3908                           	bsf	3,0
  3909                           	endm
  3910                           setz	macro
  3911                           	bsf	3,2
  3912                           	endm
  3913                           skipc	macro
  3914                           	btfss	3,0
  3915                           	endm
  3916                           skipz	macro
  3917                           	btfss	3,2
  3918                           	endm
  3919                           skipnc	macro
  3920                           	btfsc	3,0
  3921                           	endm
  3922                           skipnz	macro
  3923                           	btfsc	3,2
  3924                           	endm
  3925                           indf	equ	0
  3926                           indf0	equ	0
  3927                           pc	equ	2
  3928                           pcl	equ	2
  3929  0523                     __ptext412:	;psect for function ___lldiv
  3930                           opt subtitle "HI-TECH Software Omniscient Code Generator (Lite mode) build 49521"
  3931                           
  3932                           opt pagewidth 120
  3933                           
  3934  006D                     	__size_of___lldiv	equ	__end_of___lldiv-___lldiv
  3935                           opt subtitle "HI-TECH Software Omniscient Code Generator (Lite mode) build 49521"
  3936  0523                     ___lldiv:	
  3937                           opt subtitle "HI-TECH Software Omniscient Code Generator (Lite mode) build 49521"
  3938                           
  3939                           opt pagewidth 120
  3940                           
  3941  0523                     l1534:	
  3942  0523  3000               	movlw	0
  3943  0524  00FC               	movwf	(___lldiv@quotient+3)
  3944  0525  3000               	movlw	0
  3945  0526  00FB               	movwf	(___lldiv@quotient+2)
  3946  0527  3000               	movlw	0
  3947  0528  00FA               	movwf	(___lldiv@quotient+1)
  3948  0529  3000               	movlw	0
  3949  052A  00F9               	movwf	(___lldiv@quotient)
  3950                           opt subtitle "HI-TECH Software Omniscient Code Generator (Lite mode) build 49521"
  3951                           
  3952  052B  0873               	movf	(___lldiv@divisor+3),w
  3953  052C  0472               	iorwf	(___lldiv@divisor+2),w
  3954  052D  0471               	iorwf	(___lldiv@divisor+1),w
  3955  052E  0470               	iorwf	(___lldiv@divisor),w
  3956  052F  1903               	skipnz
  3957  0530  2D32               	goto	u1031
  3958  0531  2D33               	goto	u1030
  3959  0532                     u1031:
  3960  0532  2D86               	goto	l1554
  3961  0533                     u1030:
  3962                           opt subtitle "HI-TECH Software Omniscient Code Generator (Lite mode) build 49521"
  3963                           
  3964  0533                     l1536:	
  3965  0533  01FD               	clrf	(___lldiv@counter)
  3966  0534  0AFD               	incf	(___lldiv@counter),f
  3967                           opt subtitle "HI-TECH Software Omniscient Code Generator (Lite mode) build 49521"
  3968  0535  2D44               	goto	l1540
  3969                           opt subtitle "HI-TECH Software Omniscient Code Generator (Lite mode) build 49521"
  3970  0536                     l544:	
  3971                           opt subtitle "HI-TECH Software Omniscient Code Generator (Lite mode) build 49521"
  3972                           
  3973  0536                     l1538:	
  3974  0536  3001               	movlw	01h
  3975  0537  00F8               	movwf	(??___lldiv+0)+0
  3976  0538                     u1045:
  3977  0538  1003               	clrc
  3978  0539  0DF0               	rlf	(___lldiv@divisor),f
  3979  053A  0DF1               	rlf	(___lldiv@divisor+1),f
  3980  053B  0DF2               	rlf	(___lldiv@divisor+2),f
  3981  053C  0DF3               	rlf	(___lldiv@divisor+3),f
  3982  053D  0BF8               	decfsz	(??___lldiv+0)+0
  3983  053E  2D38               	goto	u1045
  3984                           opt subtitle "HI-TECH Software Omniscient Code Generator (Lite mode) build 49521"
  3985  053F  3001               	movlw	(01h)
  3986  0540  00F8               	movwf	(??___lldiv+0)+0
  3987  0541  0878               	movf	(??___lldiv+0)+0,w
  3988  0542  07FD               	addwf	(___lldiv@counter),f
  3989  0543  2D44               	goto	l1540
  3990                           opt subtitle "HI-TECH Software Omniscient Code Generator (Lite mode) build 49521"
  3991                           
  3992  0544                     l543:	
  3993                           opt subtitle "HI-TECH Software Omniscient Code Generator (Lite mode) build 49521"
  3994                           
  3995  0544                     l1540:	
  3996  0544  1FF3               	btfss	(___lldiv@divisor+3),(31)&7
  3997  0545  2D47               	goto	u1051
  3998  0546  2D48               	goto	u1050
  3999  0547                     u1051:
  4000  0547  2D36               	goto	l1538
  4001  0548                     u1050:
  4002  0548  2D4A               	goto	l1542
  4003                           opt subtitle "HI-TECH Software Omniscient Code Generator (Lite mode) build 49521"
  4004  0549                     l545:	
  4005  0549  2D4A               	goto	l1542
  4006                           opt subtitle "HI-TECH Software Omniscient Code Generator (Lite mode) build 49521"
  4007                           
  4008  054A                     l546:	
  4009                           opt subtitle "HI-TECH Software Omniscient Code Generator (Lite mode) build 49521"
  4010                           
  4011  054A                     l1542:	
  4012  054A  3001               	movlw	01h
  4013  054B  00F8               	movwf	(??___lldiv+0)+0
  4014  054C                     u1065:
  4015  054C  1003               	clrc
  4016  054D  0DF9               	rlf	(___lldiv@quotient),f
  4017  054E  0DFA               	rlf	(___lldiv@quotient+1),f
  4018  054F  0DFB               	rlf	(___lldiv@quotient+2),f
  4019  0550  0DFC               	rlf	(___lldiv@quotient+3),f
  4020  0551  0BF8               	decfsz	(??___lldiv+0)+0
  4021  0552  2D4C               	goto	u1065
  4022                           opt subtitle "HI-TECH Software Omniscient Code Generator (Lite mode) build 49521"
  4023                           
  4024  0553                     l1544:	
  4025  0553  0873               	movf	(___lldiv@divisor+3),w
  4026  0554  0277               	subwf	(___lldiv@dividend+3),w
  4027  0555  1D03               	skipz
  4028  0556  2D61               	goto	u1075
  4029  0557  0872               	movf	(___lldiv@divisor+2),w
  4030  0558  0276               	subwf	(___lldiv@dividend+2),w
  4031  0559  1D03               	skipz
  4032  055A  2D61               	goto	u1075
  4033  055B  0871               	movf	(___lldiv@divisor+1),w
  4034  055C  0275               	subwf	(___lldiv@dividend+1),w
  4035  055D  1D03               	skipz
  4036  055E  2D61               	goto	u1075
  4037  055F  0870               	movf	(___lldiv@divisor),w
  4038  0560  0274               	subwf	(___lldiv@dividend),w
  4039  0561                     u1075:
  4040  0561  1C03               	skipc
  4041  0562  2D64               	goto	u1071
  4042  0563  2D65               	goto	u1070
  4043  0564                     u1071:
  4044  0564  2D75               	goto	l1550
  4045  0565                     u1070:
  4046                           opt subtitle "HI-TECH Software Omniscient Code Generator (Lite mode) build 49521"
  4047                           
  4048  0565                     l1546:	
  4049  0565  0870               	movf	(___lldiv@divisor),w
  4050  0566  02F4               	subwf	(___lldiv@dividend),f
  4051  0567  0871               	movf	(___lldiv@divisor+1),w
  4052  0568  1C03               	skipc
  4053  0569  0F71               	incfsz	(___lldiv@divisor+1),w
  4054  056A  02F5               	subwf	(___lldiv@dividend+1),f
  4055  056B  0872               	movf	(___lldiv@divisor+2),w
  4056  056C  1C03               	skipc
  4057  056D  0F72               	incfsz	(___lldiv@divisor+2),w
  4058  056E  02F6               	subwf	(___lldiv@dividend+2),f
  4059  056F  0873               	movf	(___lldiv@divisor+3),w
  4060  0570  1C03               	skipc
  4061  0571  0F73               	incfsz	(___lldiv@divisor+3),w
  4062  0572  02F7               	subwf	(___lldiv@dividend+3),f
  4063                           opt subtitle "HI-TECH Software Omniscient Code Generator (Lite mode) build 49521"
  4064                           
  4065  0573                     l1548:	
  4066  0573  1479               	bsf	(___lldiv@quotient)+(0/8),(0)&7
  4067  0574  2D75               	goto	l1550
  4068                           opt subtitle "HI-TECH Software Omniscient Code Generator (Lite mode) build 49521"
  4069                           
  4070  0575                     l547:	
  4071                           opt subtitle "HI-TECH Software Omniscient Code Generator (Lite mode) build 49521"
  4072                           
  4073  0575                     l1550:	
  4074  0575  3001               	movlw	01h
  4075  0576                     u1085:
  4076  0576  1003               	clrc
  4077  0577  0CF3               	rrf	(___lldiv@divisor+3),f
  4078  0578  0CF2               	rrf	(___lldiv@divisor+2),f
  4079  0579  0CF1               	rrf	(___lldiv@divisor+1),f
  4080  057A  0CF0               	rrf	(___lldiv@divisor),f
  4081  057B  3EFF               	addlw	-1
  4082  057C  1D03               	skipz
  4083  057D  2D76               	goto	u1085
  4084                           opt subtitle "HI-TECH Software Omniscient Code Generator (Lite mode) build 49521"
  4085                           
  4086                           opt pagewidth 120
  4087  057E                     l1552:	
  4088  057E  3001               	movlw	low(01h)
  4089  057F  02FD               	subwf	(___lldiv@counter),f
  4090  0580  1D03               	btfss	status,2
  4091  0581  2D83               	goto	u1091
  4092  0582  2D84               	goto	u1090
  4093  0583                     u1091:
  4094  0583  2D4A               	goto	l1542
  4095  0584                     u1090:
  4096  0584  2D86               	goto	l1554
  4097                           opt subtitle "HI-TECH Software Omniscient Code Generator (Lite mode) build 49521"
  4098  0585                     l548:	
  4099  0585  2D86               	goto	l1554
  4100                           opt subtitle "HI-TECH Software Omniscient Code Generator (Lite mode) build 49521"
  4101                           
  4102  0586                     l542:	
  4103                           opt subtitle "HI-TECH Software Omniscient Code Generator (Lite mode) build 49521"
  4104                           
  4105  0586                     l1554:	
  4106  0586  087C               	movf	(___lldiv@quotient+3),w
  4107  0587  00F3               	movwf	(?___lldiv+3)
  4108  0588  087B               	movf	(___lldiv@quotient+2),w
  4109  0589  00F2               	movwf	(?___lldiv+2)
  4110  058A  087A               	movf	(___lldiv@quotient+1),w
  4111  058B  00F1               	movwf	(?___lldiv+1)
  4112  058C  0879               	movf	(___lldiv@quotient),w
  4113  058D  00F0               	movwf	(?___lldiv)
  4114                           opt subtitle "HI-TECH Software Omniscient Code Generator (Lite mode) build 49521"
  4115  058E  2D8F               	goto	l549
  4116                           opt subtitle "HI-TECH Software Omniscient Code Generator (Lite mode) build 49521"
  4117  058F                     l1556:	
  4118                           opt subtitle "HI-TECH Software Omniscient Code Generator (Lite mode) build 49521"
  4119                           
  4120  058F                     l549:	
  4121  058F  0008               	return
  4122                           opt subtitle "HI-TECH Software Omniscient Code Generator (Lite mode) build 49521"
  4123                           
  4124  0590                     	__end_of___lldiv:
  4125                           opt subtitle "HI-TECH Software Omniscient Code Generator (Lite mode) build 49521"
  4126                           
  4127                           opt pagewidth 120
  4128  0000                     __ptext413:	;psect for function ___lldiv
  4129                           opt subtitle "HI-TECH Software Omniscient Code Generator (Lite mode) build 49521"
  4130  007E                     	btemp set 07Eh
  4131                           opt subtitle "HI-TECH Software Omniscient Code Generator (Lite mode) build 49521"
  4132                           
  4133                           opt pagewidth 120
  4134  007E                     	wtemp0 set btemp


Data Sizes:
    Strings     74
    Constant    10
    Data        0
    BSS         1
    Persistent  2
    Stack       0

Auto Spaces:
    Space          Size  Autos    Used
    COMMON           14     14      14
    BANK0            80     18      21
    BANK1            80      0       0
    BANK3            96      0       0
    BANK2            96      0       0

Pointer List with Targets:

    ?___lwdiv	unsigned int  size(1) Largest target is 0

    ?___lwmod	unsigned int  size(1) Largest target is 0

    ?___lldiv	unsigned long  size(1) Largest target is 0

    printf@f	PTR const unsigned char  size(1) Largest target is 23
		 -> STR_3(CODE[23]), STR_2(CODE[18]), 

    ?_printf	int  size(1) Largest target is 0

    printf@ap	PTR void [1] size(1) Largest target is 2
		 -> ?_printf(BANK0[2]), 

    S513$_cp	PTR const unsigned char  size(1) Largest target is 0

    _val._str._cp	PTR const unsigned char  size(1) Largest target is 0

    uart_puts@string	PTR const unsigned char  size(1) Largest target is 18
		 -> STR_4(CODE[18]), STR_1(CODE[15]), 


Critical Paths under _main in COMMON

    _main->_spi_control
    _spi_init->_spi_control
    _uart_control->___lldiv
    _printf->___lwmod
    _putch->_uart_write
    ___lwmod->___lwdiv

Critical Paths under _main in BANK0

    _main->_printf

Critical Paths under _main in BANK1

    None.

Critical Paths under _main in BANK3

    None.

Critical Paths under _main in BANK2

    None.

Call Graph Tables:

 ---------------------------------------------------------------------------------
 (Depth) Function   	        Calls       Base Space   Used Autos Params    Refs
 ---------------------------------------------------------------------------------
 (0) _main                                                 4     4      0    1668
                                             14 BANK0      4     4      0
                           _spi_init
                          _uart_init
                       _uart_control
                        _spi_control
                          _uart_open
                          _uart_puts
                           _spi_open
                             _printf
                          _spi_trans
                          _spi_close
 ---------------------------------------------------------------------------------
 (1) _spi_init                                             1     1      0     221
                                              0 BANK0      1     1      0
                        _spi_control
 ---------------------------------------------------------------------------------
 (1) _uart_init                                            1     1      0      44
                                              0 COMMON     1     1      0
 ---------------------------------------------------------------------------------
 (1) _uart_control                                        13     5      8     206
                                              0 BANK0     13     5      8
                            ___lldiv
 ---------------------------------------------------------------------------------
 (1) _spi_control                                         14     6      8     155
                                              0 COMMON    14     6      8
 ---------------------------------------------------------------------------------
 (1) _uart_open                                            1     1      0      22
                                              0 COMMON     1     1      0
 ---------------------------------------------------------------------------------
 (2) _uart_puts                                            3     2      1      67
                                              0 COMMON     3     2      1
 ---------------------------------------------------------------------------------
 (1) _spi_open                                             1     1      0       0
 ---------------------------------------------------------------------------------
 (1) _printf                                              14    12      2     773
                                              0 BANK0     14    12      2
                              _putch
                            ___lwdiv
                            ___lwmod
 ---------------------------------------------------------------------------------
 (2) _putch                                                2     2      0      66
                                              2 COMMON     2     2      0
                         _uart_write
 ---------------------------------------------------------------------------------
 (3) _uart_write                                           2     1      1      44
                                              0 COMMON     2     1      1
 ---------------------------------------------------------------------------------
 (1) _spi_trans                                            4     3      1      67
                                              0 COMMON     4     3      1
                      _spi_available
 ---------------------------------------------------------------------------------
 (1) _spi_close                                            1     1      0       0
 ---------------------------------------------------------------------------------
 (2) _spi_available                                        1     1      0       0
 ---------------------------------------------------------------------------------
 (2) ___lwdiv                                              8     4      4     162
                                              0 COMMON     8     4      4
 ---------------------------------------------------------------------------------
 (2) ___lwmod                                              6     2      4     159
                                              8 COMMON     6     2      4
                            ___lwdiv (ARG)
 ---------------------------------------------------------------------------------
 (2) ___lldiv                                             14     6      8     162
                                              0 COMMON    14     6      8
 ---------------------------------------------------------------------------------
 Estimated maximum stack depth 3
 ---------------------------------------------------------------------------------

 Call Graph Graphs:

 _main (ROOT)
   _spi_init
     _spi_control
   _uart_init
   _uart_control
     ___lldiv
   _spi_control
   _uart_open
   _uart_puts
   _spi_open
   _printf
     _putch
       _uart_write
     ___lwdiv
     ___lwmod
       ___lwdiv (ARG)
   _spi_trans
     _spi_available
   _spi_close

 Address spaces:
Name               Size   Autos  Total    Cost      Usage
BITCOMMON            E      0       0       0        0.0%
EEDATA             100      0       0       0        0.0%
NULL                 0      0       0       0        0.0%
CODE                 0      0       0       0        0.0%
COMMON               E      E       E       1      100.0%
BITSFR0              0      0       0       1        0.0%
SFR0                 0      0       0       1        0.0%
BITSFR1              0      0       0       2        0.0%
SFR1                 0      0       0       2        0.0%
STACK                0      0       3       2        0.0%
ABS                  0      0      23       3        0.0%
BITBANK0            50      0       0       4        0.0%
BITSFR3              0      0       0       4        0.0%
SFR3                 0      0       0       4        0.0%
BANK0               50     12      15       5       26.3%
BITSFR2              0      0       0       5        0.0%
SFR2                 0      0       0       5        0.0%
BITBANK1            50      0       0       6        0.0%
BANK1               50      0       0       7        0.0%
BITBANK3            60      0       0       8        0.0%
BANK3               60      0       0       9        0.0%
BITBANK2            60      0       0      10        0.0%
BANK2               60      0       0      11        0.0%
DATA                 0      0      26      12        0.0%


Microchip Technology PIC Macro Assembler V1.12 build 49521 
Symbol Table                                                                                   Mon Jul 28 01:17:15 2014

                      pc 0002              __CFG_CP$OFF 0000           uart_write@data 0070  
            _SSPSTATbits 0094                       l40 06C2                       l33 038C  
                     l41 06FA                       l42 070D                       l43 070E  
                     l44 070E                       l36 069E                       l37 069C  
                     l70 059F                       l38 069D                       l71 05AA  
                     l63 0425                       l39 070D                       l80 0619  
                     l72 05CD                       l64 0445                       l81 05FB  
                     l73 05B7                       l82 0642                       l74 05CC  
                     l83 0602                       l75 05C4                       l67 0599  
                     l92 036A                       l84 0609                       l76 05CB  
                     l68 0642                       l85 0610                       l77 05FA  
                     l69 05D7                       l86 0617                       l78 05CE  
                     l79 05D5                       l89 037E                       fsr 0004  
                    l140 0376                      l125 03D7                      l126 03D6  
                    l230 040B                      l127 03E3                      l231 03F6  
                    l128 03EB                      l232 0405                      l160 03B6  
                    l233 0405                      l234 040A                      l170 03CF  
                    l235 0418                      l163 04E1                      l180 039B  
                    l228 03F5                      l164 0522                      l181 03A0  
                    l229 0418                      l165 04ED                      l262 07E9  
                    l270 0742                      l166 04F4                      l271 072B  
                    l263 0719                      l159 03AB                      l280 07FE  
                    l272 075C                      l264 0726                      l177 0396  
                    l273 0766                      l265 072D                      l281 07FF  
                    l169 03C1                      l178 03A0                      l274 078E  
                    l266 0728                      l179 039B                      l267 07FF  
                    l275 0783                      l380 04A6                      l276 079B  
                    l268 0729                      l381 04BF                      l277 07DB  
                    l269 072A                      l542 0586                      l390 0461  
                    l382 04CD                      l278 07A2                      l543 0544  
                    l391 0472                      l383 04D5                      l279 07E8  
                    l544 0536                      l392 0480                      l376 04CE  
                    l545 0549                      l393 0488                      l377 04A0  
                    l546 054A                      l386 0481                      l378 0494  
                    l547 0575                      l387 045B                      l379 04A5  
                    l548 0585                      l388 044F                      l549 058F  
                    l389 0460             __CFG_CPD$OFF 0000                      u800 0597  
                    u801 0596                      u810 05A5                      u811 05A4  
                    u820 05B0                      u821 05AF                      u830 05BD  
                    u831 05BC                      u840 03BE                      u841 03BD  
                    u770 0394                      u850 03F3                      u771 0393  
                    u851 03F2                      u780 039F                      u860 0409  
                    u781 039E                      u861 0408                      u870 0417  
                    u790 03A8                      u871 0416                      u791 03A7  
                    u960 0491                      u961 0490                      u980 04A4  
                    u981 04A3                      u975 0495                      u995 04A7  
        uart_write@uartd 0071                      fsr0 0004                      indf 0000  
           __CFG_FOSC$XT 0000             __CFG_LVP$OFF 0000                     l1420 03B8  
                   l1510 048B                     l1350 0395                     l1430 03ED  
                   l1422 03BE                     l1600 045B                     l1520 04A6  
                   l1512 0491                     l1352 0396                     l1440 0377  
                   l1432 03F4                     l1424 03C0                     l1360 03AB  
                   l1602 0461                     l1610 0481                     l1522 04B7  
                   l1514 0494                     l1530 04CE                     l1442 037C  
                   l1434 03F6                     l1426 03CD                     l1370 0599  
                   l1362 03B4                     l1354 03A2                     l1540 0544  
                   l1612 0488                     l1604 046B                     l1532 04D5  
                   l1524 04BD                     l1516 049B                     l1508 0489  
                   l1348 038E                     l1620 072C                     l1444 037E  
                   l1436 0400                     l1428 03CF                     l1380 05B7  
                   l1372 059F                     l1364 03B6                     l1356 03A8  
                   l1700 0700                     l1550 0575                     l1542 054A  
                   l1534 0523                     l1606 0472                     l1526 04BF  
                   l1518 04A0                     l1454 0370                     l1446 0366  
                   l1630 0752                     l1622 072D                     l1614 0714  
                   l1438 040B                     l1382 05BD                     l1374 05A5  
                   l1390 05D7                     l1366 0591                     l1358 03AA  
                   l1552 057E                     l1544 0553                     l1536 0533  
                   l1608 0479                     l1528 04C6                     l1456 0376  
                   l1640 0782                     l1632 0756                     l1624 0742  
                   l1616 0719                     l1392 0618                     l1384 05C4  
                   l1376 05AA                     l1368 0598                     l1560 041C  
                   l1546 0565                     l1538 0536                     l1554 0586  
                   l1650 079B                     l1642 0783                     l1634 075C  
                   l1626 074A                     l1618 071F                     l1386 05CE  
                   l1378 05B0                     l1394 0619                     l1570 0441  
                   l1562 0422                     l1556 058F                     l1548 0573  
                   l1652 07A2                     l1644 0787                     l1636 0765  
                   l1628 074E                     l1388 05D6                     l1580 04F4  
                   l1572 0445                     l1564 0424                     l1660 0643  
                   l1590 03EB                     l1558 0380                     l1654 07D4  
                   l1646 078E                     l1638 0766                     l1830 063D  
                   l1822 05E8                     l1582 0522                     l1574 04D9  
                   l1566 0425                     l1670 0656                     l1662 0646  
                   l1592 0446                     l1584 03D1                     l1656 07DB  
                   l1648 0794                     l1832 062F                     l1824 05F5  
                   l1576 04E0                     l1568 042B                     l1680 06AA  
                   l1672 0661                     l1664 0649                     l1594 044C  
                   l1586 03D7                     l1658 07E9                     l1826 05ED  
                   l1578 04E6                     l1690 06CF                     l1682 06B7  
                   l1674 0677                     l1666 064A                     l1596 044F  
                   l1588 03E3                     l1828 062A                     l1692 06E0  
                   l1684 06BA                     l1676 068F                     l1668 064B  
                   l1598 0456                     l1694 06ED                     l1686 06C1  
                   l1678 069E                     l1696 06F3                     l1688 06C2  
                   l1698 06FA                     STR_1 004E                     STR_2 002A  
                   STR_3 0013                     STR_4 003C                     u1000 04B7  
                   u1001 04B6                     u1020 04CC                     u1100 0422  
                   u1021 04CB                     u1005 04B3                     u1101 0421  
                   u1030 0533                     u1110 04DF                     u1031 0532  
                   u1015 04C0                     u1111 04DE                     u1200 071F  
                   u1120 0504                     u1201 071E                     u1050 0548  
                   u1130 03E2                     u1210 0752                     u1051 0547  
                   u1131 03E1                     u1211 0751                     u1140 044C  
                   u1220 0764                     u1300 06C0                     u1045 0538  
                   u1141 044B                     u1221 0763                     u1125 04FF  
                   u1301 06BF                     u1070 0565                     u1230 0781  
                   u1310 06F9                     u1071 0564                     u1231 0780  
                   u1311 06F8                     u1160 045F                     u1240 078D  
                   u1065 054C                     u1161 045E                     u1241 078C  
                   u1090 0584                     u1170 046B                     u1250 0794  
                   u1091 0583                     u1075 0561                     u1171 046A  
                   u1155 0450                     u1251 0793                     u1235 077D  
                   u1260 07E7                     u1085 0576                     u1261 07E6  
                   u1190 047F                     u1270 07FD                     u1191 047E  
                   u1175 0467                     u1271 07FC                     u1280 069C  
                   u1185 0473                     u1281 069B                     u1290 06B7  
                   u1291 06B6             __CFG_WRT$OFF 0000        spi_available@spid 0070  
                   _main 0643                     _spi1 0032                     btemp 007E  
                   start 0000            __CFG_IESO$OFF 0000            spi_close@spid 0070  
           spi_open@spid 0070                    ?_main 0070          ??_spi_available 0070  
          __CFG_WDTE$OFF 0000                    _ANSEL 0188          __end_of___lldiv 0590  
        __end_of___lwdiv 04D6          __end_of___lwmod 0489                    _RCREG 001A  
                  _RCSTA 0018                    _SPBRG 0099                    _TXREG 0019  
                  _TXSTA 0098           __CFG_FCMEN$OFF 0000          __end_of_dpowers 0013  
                  _inuse 0034                    _uart1 0033                    _putch 037F  
                  main@i 0031           __CFG_BOREN$OFF 0000                    pclath 000A  
                  status 0003                    wtemp0 007E           __CFG_MCLRE$OFF 0000  
        __initialization 036B             __end_of_main 0711                   ??_main 002E  
                 ?_putch 0070                   _SSPCON 0014                   _SSPBUF 0013  
         __CFG_PWRTE$OFF 0000           spi_control@arg 0074                ??___lldiv 0078  
              ??___lwdiv 0074                ??___lwmod 007C            spi_trans@data 0070  
          spi_trans@spid 0072                   _printf 0711                   main@rx 0030  
       __end_of_spi_init 0446         __end_of_spi_open 037F             ?_spi_control 0070  
__end_of__initialization 036C           __pcstackCOMMON 0070            __end_of_putch 038D  
                ??_putch 0072               __pbssBANK0 0034               __pmaintext 0643  
                ?_printf 0020       __size_of_uart_init 0016       __size_of_uart_open 0019  
     __size_of_uart_puts 002D       __size_of_spi_close 0005       __size_of_spi_trans 001C  
                _SSPSTAT 0094               __stringtab 0003          spi_control@ctrl 0070  
        spi_control@spid 007C                ?_spi_init 0070                ?_spi_open 0070  
                ___lldiv 0523                  ___lwdiv 0489                  ___lwmod 0446  
        spi_init@eModule 0020          __size_of_printf 00EF                  _dpowers 0009  
  __end_of_spi_available 0377         uart_control@ctrl 0020           spi_trans@rxtmp 0073  
   end_of_initialization 036C            ?_uart_control 0020     __size_of_spi_control 00B3  
      __end_of_uart_init 03B7        __end_of_uart_open 03D0          ___lldiv@divisor 0070  
      __end_of_uart_puts 0419          ___lldiv@counter 007D        __end_of_spi_close 036B  
      __end_of_spi_trans 03EC                _RCSTAbits 0018                  printf@c 002D  
                printf@f 0027               ??_spi_init 007E               ??_spi_open 0070  
             _uart_write 038D                _TRISCbits 0087           ??_uart_control 0028  
              _TXSTAbits 0098           __end_of_printf 0800      start_initialization 036B  
            ?_uart_write 0070                 ??_printf 0022            __pcstackBANK0 0020  
    __end_of__stringdata 005D                __pnvBANK0 0032         ___lwdiv@dividend 0072  
              __ptext400 0590                __ptext401 03B7                __ptext410 0489  
              __ptext402 03EC                __ptext411 0446                __ptext403 0377  
              __ptext412 0523                __ptext404 0711                __ptext413 0000  
              __ptext405 037F                __ptext406 038D                __ptext407 03D0  
              __ptext408 0366                __ptext409 0370                __ptext397 0419  
              __ptext398 03A1                __ptext399 04D6                 ?___lldiv 0070  
               ?___lwdiv 0070                 ?___lwmod 0078     __end_of_uart_control 0523  
      __size_of_spi_init 002D        __size_of_spi_open 0008                __pstrings 0003  
       ___lwdiv@quotient 0075           __size_of_putch 000E          uart_control@arg 0024  
    __size_of_uart_write 0014                 _PIR1bits 000C                _uart_init 03A1  
              _uart_open 03B7                _uart_puts 03EC                _spi_close 0366  
              _spi_trans 03D0              __stringbase 0008              __stringdata 0013  
             printf@_val 0029               printf@flag 0026               printf@prec 0028  
          ??_spi_control 0078         spi_control@speed 007D   __size_of_spi_available 0007  
             ?_uart_init 0070               ?_uart_open 0070               ?_uart_puts 0070  
             ?_spi_close 0070         __size_of___lldiv 006D         __size_of___lwdiv 004D  
             ?_spi_trans 0070         __size_of___lwmod 0043       __end_of__stringtab 0009  
        ___lwdiv@divisor 0070          ___lwdiv@counter 0077        __CFG_BOR4V$BOR40V 0000  
          __size_of_main 00CE        uart_control@uartd 002C           uart_init@eUART 0070  
    __end_of_spi_control 0643    __size_of_uart_control 004D                 _spi_init 0419  
               _spi_open 0377             ??_uart_write 0071                putch@data 0073  
          _spi_available 0370           uart_open@uartd 0070             _uart_control 04D6  
       ___lwmod@dividend 007A         ___lldiv@dividend 0074       __end_of_uart_write 03A1  
              stringcode 0003              ??_uart_init 0070                 printf@ap 0025  
            ??_uart_open 0070              ??_uart_puts 0071              ??_spi_close 0070  
            ??_spi_trans 0071         ___lldiv@quotient 0079          ___lwmod@divisor 0078  
         ?_spi_available 0070          ___lwmod@counter 007D                 stringdir 0003  
               stringtab 0003          uart_puts@string 0070              _spi_control 0590  
         uart_puts@uartd 0072               _SSPCONbits 0014  
